ccopy_reg
_reconstructor
p0
(clibtbx.env_config
environment
p1
c__builtin__
object
p2
Ntp3
Rp4
(dp5
Vpython_version_major_minor
p6
(L3L
L6L
tp7
sVbuild_path
p8
g0
(clibtbx.path
absolute_path
p9
g2
Ntp10
Rp11
(dp12
V_path
p13
V/dev/shm/bkpoon/software/mc3/envs/build/conda-bld/cctbx_1600660326779/_h_env_placehold_placehold_placehold_placehold_placehold_placehold_placehold_placehold_placehold_placehold_placehold_placehold_placehold_placehold_placehold_placehold_placehold_placehol/share/cctbx
p14
sbsV_dispatcher_precall_commands
p15
NsVbin_path
p16
g0
(clibtbx.path
relocatable_path
p17
g2
Ntp18
Rp19
(dp20
V_anchor
p21
g0
(g9
g2
Ntp22
Rp23
(dp24
g13
V/dev/shm/bkpoon/software/mc3/envs/build/conda-bld/cctbx_1600660326779/_h_env_placehold_placehold_placehold_placehold_placehold_placehold_placehold_placehold_placehold_placehold_placehold_placehold_placehold_placehold_placehold_placehold_placehold_placehol
p25
sbsVrelocatable
p26
Vbin
p27
sbsVexe_path
p28
g19
sVlib_path
p29
g0
(g17
g2
Ntp30
Rp31
(dp32
g21
g23
sg26
Vlib
p33
sbsVinclude_path
p34
g0
(g17
g2
Ntp35
Rp36
(dp37
g21
g23
sg26
Vinclude
p38
sbsVpython_exe
p39
g0
(g17
g2
Ntp40
Rp41
(dp42
g21
g23
sg26
Vbin/python3.6
p43
sbsVinstalled
p44
I01
sVinstalled_modules
p45
(lp46
sVinstalled_order
p47
(lp48
Vlibtbx
p49
aVtbxx
p50
aVboost
p51
aVomptbx
p52
aVfable
p53
aVscitbx
p54
aVcma_es
p55
aVcrys3d
p56
aVannlib
p57
aVchiltbx
p58
aVcctbx
p59
aVucif
p60
aVsmtbx
p61
aVccp4io
p62
aVcbflib
p63
aViotbx
p64
aVdxtbx
p65
aVspotfinder
p66
aVrstbx
p67
aVmmtbx
p68
aVcctbx_website
p69
aVgltbx
p70
aVwxtbx
p71
asVcommand_version_suffix
p72
NsVexplicitly_requested_modules
p73
c__builtin__
set
p74
((lp75
Viotbx
p76
aVfable
p77
ag69
aVspotinder
p78
aVsmtbx
p79
aVlibtbx
p80
aVcctbx
p81
aVscitbx
p82
ag55
aVmmtbx
p83
ag67
ag71
aVcrys3d
p84
ag70
atp85
Rp86
sVbuild_options
p87
g0
(clibtbx.env_config
build_options
p88
g2
Ntp89
Rp90
(dp91
Vskip_phenix_dispatchers
p92
I01
sVenable_cxx11
p93
I01
sVmsvc_arch_flag
p94
NsVforce_32bit
p95
I00
sVuse_environment_flags
p96
I01
sVprecompile_headers
p97
I00
sVopt_resources
p98
I00
sVuse_conda
p99
I01
sVenable_cuda
p100
I00
sVenable_boost_threads
p101
I01
sVenable_openmp_if_possible
p102
I00
sVboost_python_bool_int_strict
p103
I01
sVboost_python_no_py_signatures
p104
I00
sVbuild_boost_python_extensions
p105
I01
sVwrite_full_flex_fwd_h
p106
I00
sVscan_boost
p107
I00
sVstatic_exe
p108
I00
sVstatic_libraries
p109
I00
sVwarning_level
p110
L0L
sVmode
p111
Vrelease
p112
sVcompiler
p113
Vconda
p114
sVoptimization
p115
I01
sVmax_optimized
p116
I00
sVdebug_symbols
p117
I00
sVenv_cxxflags
p118
V-fvisibility-inlines-hidden -std=c++17 -fmessage-length=0 -march=nocona -mtune=haswell -ftree-vectorize -fPIC -fstack-protector-strong -fno-plt -O2 -ffunction-sections -pipe -isystem /dev/shm/bkpoon/software/mc3/envs/build/conda-bld/cctbx_1600660326779/_h_env_placehold_placehold_placehold_placehold_placehold_placehold_placehold_placehold_placehold_placehold_placehold_placehold_placehold_placehold_placehold_placehold_placehold_placehol/include -fdebug-prefix-map=/dev/shm/bkpoon/software/mc3/envs/build/conda-bld/cctbx_1600660326779/work=/usr/local/src/conda/cctbx-2020.8 -fdebug-prefix-map=/dev/shm/bkpoon/software/mc3/envs/build/conda-bld/cctbx_1600660326779/_h_env_placehold_placehold_placehold_placehold_placehold_placehold_placehold_placehold_placehold_placehold_placehold_placehold_placehold_placehold_placehold_placehold_placehold_placehol=/usr/local/src/conda-prefix
p119
sVenv_cflags
p120
V-march=nocona -mtune=haswell -ftree-vectorize -fPIC -fstack-protector-strong -fno-plt -O2 -ffunction-sections -pipe -isystem /dev/shm/bkpoon/software/mc3/envs/build/conda-bld/cctbx_1600660326779/_h_env_placehold_placehold_placehold_placehold_placehold_placehold_placehold_placehold_placehold_placehold_placehold_placehold_placehold_placehold_placehold_placehold_placehold_placehol/include -fdebug-prefix-map=/dev/shm/bkpoon/software/mc3/envs/build/conda-bld/cctbx_1600660326779/work=/usr/local/src/conda/cctbx-2020.8 -fdebug-prefix-map=/dev/shm/bkpoon/software/mc3/envs/build/conda-bld/cctbx_1600660326779/_h_env_placehold_placehold_placehold_placehold_placehold_placehold_placehold_placehold_placehold_placehold_placehold_placehold_placehold_placehold_placehold_placehold_placehold_placehol=/usr/local/src/conda-prefix
p121
sVenv_cppflags
p122
V-DNDEBUG -D_FORTIFY_SOURCE=2 -O2 -isystem /dev/shm/bkpoon/software/mc3/envs/build/conda-bld/cctbx_1600660326779/_h_env_placehold_placehold_placehold_placehold_placehold_placehold_placehold_placehold_placehold_placehold_placehold_placehold_placehold_placehold_placehold_placehold_placehold_placehol/include
p123
sVenv_ldflags
p124
V-Wl,-O2 -Wl,--sort-common -Wl,--as-needed -Wl,-z,relro -Wl,-z,now -Wl,--disable-new-dtags -Wl,--gc-sections -Wl,-rpath,/dev/shm/bkpoon/software/mc3/envs/build/conda-bld/cctbx_1600660326779/_h_env_placehold_placehold_placehold_placehold_placehold_placehold_placehold_placehold_placehold_placehold_placehold_placehold_placehold_placehold_placehold_placehold_placehold_placehol/lib -Wl,-rpath-link,/dev/shm/bkpoon/software/mc3/envs/build/conda-bld/cctbx_1600660326779/_h_env_placehold_placehold_placehold_placehold_placehold_placehold_placehold_placehold_placehold_placehold_placehold_placehold_placehold_placehold_placehold_placehold_placehold_placehol/lib -L/dev/shm/bkpoon/software/mc3/envs/build/conda-bld/cctbx_1600660326779/_h_env_placehold_placehold_placehold_placehold_placehold_placehold_placehold_placehold_placehold_placehold_placehold_placehold_placehold_placehold_placehold_placehold_placehold_placehol/lib
p125
sbsVrepository_paths
p126
(lp127
g0
(g17
g2
Ntp128
Rp129
(dp130
g21
g23
sg26
V.
p131
sbag0
(g17
g2
Ntp132
Rp133
(dp134
g21
g23
sg26
Vlib/python3.6/site-packages
p135
sbasVcommand_line_redirections
p136
(dp137
sVmodule_list
p138
(lp139
g0
(clibtbx.env_config
module
p140
g2
Ntp141
Rp142
(dp143
Venv
p144
g4
sVmate_suffix
p145
Vadaptbx
p146
sVname
p147
g49
sVnames
p148
(lp149
g49
aVlibtbx_adaptbx
p150
asVdist_paths
p151
(lp152
g0
(g17
g2
Ntp153
Rp154
(dp155
g21
g23
sg26
Vlib/python3.6/site-packages/libtbx
p156
sbaNasVconda_required
p157
(lp158
sVpython_required
p159
(lp160
sVpython_paths
p161
(lp162
sVrequired_for_build
p163
(lp164
sVrequired_for_use
p165
(lp166
sVoptional
p167
(lp168
sVexclude_from_binary_bundle
p169
(lp170
sVextra_command_line_locations
p171
(lp172
sbag0
(g140
g2
Ntp173
Rp174
(dp175
g144
g4
sg145
g146
sg147
g50
sg148
(lp176
g50
aVtbxx_adaptbx
p177
asg151
(lp178
g0
(g17
g2
Ntp179
Rp180
(dp181
g21
g23
sg26
Vlib/python3.6/site-packages/tbxx
p182
sbaNasg157
(lp183
sg159
(lp184
sg161
(lp185
sg163
(lp186
sg165
(lp187
sg167
(lp188
sg169
(lp189
sg171
(lp190
sbag0
(g140
g2
Ntp191
Rp192
(dp193
g144
g4
sg145
g146
sg147
g51
sg148
(lp194
g51
aVboost_adaptbx
p195
asg151
(lp196
g129
ag0
(g17
g2
Ntp197
Rp198
(dp199
g21
g23
sg26
Vlib/python3.6/site-packages/boost_adaptbx
p200
sbasg157
(lp201
sg159
(lp202
sg161
(lp203
sg163
(lp204
g50
asg165
(lp205
sg167
(lp206
sg169
(lp207
sg171
(lp208
sbag0
(g140
g2
Ntp209
Rp210
(dp211
g144
g4
sg145
g146
sg147
g52
sg148
(lp212
g52
aVomptbx_adaptbx
p213
asg151
(lp214
g0
(g17
g2
Ntp215
Rp216
(dp217
g21
g23
sg26
Vlib/python3.6/site-packages/omptbx
p218
sbaNasg157
(lp219
sg159
(lp220
sg161
(lp221
sg163
(lp222
g51
asg165
(lp223
Vboost_adaptbx
p224
asg167
(lp225
sg169
(lp226
sg171
(lp227
sbag0
(g140
g2
Ntp228
Rp229
(dp230
g144
g4
sg145
g146
sg147
g53
sg148
(lp231
g53
aVfable_adaptbx
p232
asg151
(lp233
g0
(g17
g2
Ntp234
Rp235
(dp236
g21
g23
sg26
Vlib/python3.6/site-packages/fable
p237
sbaNasg157
(lp238
sg159
(lp239
sg161
(lp240
sg163
(lp241
sg165
(lp242
sg167
(lp243
g51
ag50
aVdocutils
p244
asg169
(lp245
sg171
(lp246
sbag0
(g140
g2
Ntp247
Rp248
(dp249
g144
g4
sg145
g146
sg147
g54
sg148
(lp250
g54
aVscitbx_adaptbx
p251
asg151
(lp252
g0
(g17
g2
Ntp253
Rp254
(dp255
g21
g23
sg26
Vlib/python3.6/site-packages/scitbx
p256
sbaNasg157
(lp257
sg159
(lp258
sg161
(lp259
sg163
(lp260
g51
asg165
(lp261
g224
ag52
asg167
(lp262
g53
asg169
(lp263
sg171
(lp264
sbag0
(g140
g2
Ntp265
Rp266
(dp267
g144
g4
sg145
g146
sg147
g55
sg148
(lp268
g55
aVcma_es_adaptbx
p269
asg151
(lp270
g0
(g17
g2
Ntp271
Rp272
(dp273
g21
g23
sg26
Vlib/python3.6/site-packages/cma_es
p274
sbaNasg157
(lp275
sg159
(lp276
sg161
(lp277
sg163
(lp278
g54
asg165
(lp279
g54
asg167
(lp280
sg169
(lp281
sg171
(lp282
sbag0
(g140
g2
Ntp283
Rp284
(dp285
g144
g4
sg145
g146
sg147
g56
sg148
(lp286
g56
aVcrys3d_adaptbx
p287
asg151
(lp288
g0
(g17
g2
Ntp289
Rp290
(dp291
g21
g23
sg26
Vlib/python3.6/site-packages/crys3d
p292
sbaNasg157
(lp293
sg159
(lp294
sg161
(lp295
sg163
(lp296
sg165
(lp297
sg167
(lp298
sg169
(lp299
sg171
(lp300
sbag0
(g140
g2
Ntp301
Rp302
(dp303
g144
g4
sg145
g146
sg147
g57
sg148
(lp304
g57
aVannlib_adaptbx
p305
asg151
(lp306
g0
(g17
g2
Ntp307
Rp308
(dp309
g21
g23
sg26
Vlib/python3.6/site-packages/annlib
p310
sbag0
(g17
g2
Ntp311
Rp312
(dp313
g21
g23
sg26
Vlib/python3.6/site-packages/annlib_adaptbx
p314
sbasg157
(lp315
sg159
(lp316
sg161
(lp317
sg163
(lp318
g54
asg165
(lp319
sg167
(lp320
sg169
(lp321
sg171
(lp322
sbag0
(g140
g2
Ntp323
Rp324
(dp325
g144
g4
sg145
g146
sg147
g58
sg148
(lp326
g58
aVchiltbx_adaptbx
p327
asg151
(lp328
g0
(g17
g2
Ntp329
Rp330
(dp331
g21
g23
sg26
Vlib/python3.6/site-packages/chiltbx
p332
sbaNasg157
(lp333
sg159
(lp334
sg161
(lp335
sg163
(lp336
sg165
(lp337
sg167
(lp338
sg169
(lp339
sg171
(lp340
sbag0
(g140
g2
Ntp341
Rp342
(dp343
g144
g4
sg145
g146
sg147
g59
sg148
(lp344
g59
aVcctbx_adaptbx
p345
asg151
(lp346
g0
(g17
g2
Ntp347
Rp348
(dp349
g21
g23
sg26
Vlib/python3.6/site-packages/cctbx
p350
sbaNasg157
(lp351
sg159
(lp352
sg161
(lp353
sg163
(lp354
g58
asg165
(lp355
g54
asg167
(lp356
sg169
(lp357
V^reference/henke/
p358
aV^reference/sasaki/
p359
asg171
(lp360
sbag0
(g140
g2
Ntp361
Rp362
(dp363
g144
g4
sg145
g146
sg147
g60
sg148
(lp364
g60
aVucif_adaptbx
p365
asg151
(lp366
g0
(g17
g2
Ntp367
Rp368
(dp369
g21
g23
sg26
Vlib/python3.6/site-packages/ucif
p370
sbaNasg157
(lp371
sg159
(lp372
sg161
(lp373
sg163
(lp374
sg165
(lp375
sg167
(lp376
sg169
(lp377
sg171
(lp378
sbag0
(g140
g2
Ntp379
Rp380
(dp381
g144
g4
sg145
g146
sg147
g61
sg148
(lp382
g61
aVsmtbx_adaptbx
p383
asg151
(lp384
g0
(g17
g2
Ntp385
Rp386
(dp387
g21
g23
sg26
Vlib/python3.6/site-packages/smtbx
p388
sbaNasg157
(lp389
sg159
(lp390
sg161
(lp391
sg163
(lp392
g59
asg165
(lp393
g59
asg167
(lp394
sg169
(lp395
sg171
(lp396
sbag0
(g140
g2
Ntp397
Rp398
(dp399
g144
g4
sg145
g146
sg147
g62
sg148
(lp400
g62
aVccp4io_adaptbx
p401
asg151
(lp402
g0
(g17
g2
Ntp403
Rp404
(dp405
g21
g23
sg26
Vlib/python3.6/site-packages/ccp4io
p406
sbag0
(g17
g2
Ntp407
Rp408
(dp409
g21
g23
sg26
Vlib/python3.6/site-packages/ccp4io_adaptbx
p410
sbasg157
(lp411
sg159
(lp412
sg161
(lp413
sg163
(lp414
sg165
(lp415
sg167
(lp416
g51
asg169
(lp417
sg171
(lp418
sbag0
(g140
g2
Ntp419
Rp420
(dp421
g144
g4
sg145
g146
sg147
g64
sg148
(lp422
g64
aViotbx_adaptbx
p423
asg151
(lp424
g0
(g17
g2
Ntp425
Rp426
(dp427
g21
g23
sg26
Vlib/python3.6/site-packages/iotbx
p428
sbaNasg157
(lp429
sg159
(lp430
sg161
(lp431
sg163
(lp432
sg165
(lp433
g59
ag53
ag60
ag61
asg167
(lp434
g62
ag63
ag65
asg169
(lp435
sg171
(lp436
sbag0
(g140
g2
Ntp437
Rp438
(dp439
g144
g4
sg145
g146
sg147
g66
sg148
(lp440
g66
aVspotfinder_adaptbx
p441
asg151
(lp442
g0
(g17
g2
Ntp443
Rp444
(dp445
g21
g23
sg26
Vlib/python3.6/site-packages/spotfinder
p446
sbaNasg157
(lp447
sg159
(lp448
sg161
(lp449
sg163
(lp450
g65
asg165
(lp451
g64
ag57
asg167
(lp452
sg169
(lp453
sg171
(lp454
sbag0
(g140
g2
Ntp455
Rp456
(dp457
g144
g4
sg145
g146
sg147
g67
sg148
(lp458
g67
aVrstbx_adaptbx
p459
asg151
(lp460
g0
(g17
g2
Ntp461
Rp462
(dp463
g21
g23
sg26
Vlib/python3.6/site-packages/rstbx
p464
sbaNasg157
(lp465
sg159
(lp466
sg161
(lp467
sg163
(lp468
g57
ag65
ag66
asg165
(lp469
g64
asg167
(lp470
g57
asg169
(lp471
sg171
(lp472
sbag0
(g140
g2
Ntp473
Rp474
(dp475
g144
g4
sg145
g146
sg147
g68
sg148
(lp476
g68
aVmmtbx_adaptbx
p477
asg151
(lp478
g0
(g17
g2
Ntp479
Rp480
(dp481
g21
g23
sg26
Vlib/python3.6/site-packages/mmtbx
p482
sbaNasg157
(lp483
sg159
(lp484
sg161
(lp485
sg163
(lp486
sg165
(lp487
g64
ag62
asg167
(lp488
Vreduce
p489
aVprobe
p490
aVking
p491
aVsuitename
p492
asg169
(lp493
sg171
(lp494
sbag0
(g140
g2
Ntp495
Rp496
(dp497
g144
g4
sg145
g146
sg147
g69
sg148
(lp498
g69
aVcctbx_website_adaptbx
p499
asg151
(lp500
g0
(g17
g2
Ntp501
Rp502
(dp503
g21
g23
sg26
Vlib/python3.6/site-packages/cctbx_website
p504
sbaNasg157
(lp505
sg159
(lp506
sg161
(lp507
sg163
(lp508
sg165
(lp509
Vmmtbx
p510
asg167
(lp511
sg169
(lp512
sg171
(lp513
sbag0
(g140
g2
Ntp514
Rp515
(dp516
g144
g4
sg145
g146
sg147
g70
sg148
(lp517
g70
aVgltbx_adaptbx
p518
asg151
(lp519
g0
(g17
g2
Ntp520
Rp521
(dp522
g21
g23
sg26
Vlib/python3.6/site-packages/gltbx
p523
sbaNasg157
(lp524
sg159
(lp525
sg161
(lp526
sg163
(lp527
g54
asg165
(lp528
sg167
(lp529
sg169
(lp530
sg171
(lp531
sbag0
(g140
g2
Ntp532
Rp533
(dp534
g144
g4
sg145
g146
sg147
g71
sg148
(lp535
g71
aVwxtbx_adaptbx
p536
asg151
(lp537
g0
(g17
g2
Ntp538
Rp539
(dp540
g21
g23
sg26
Vlib/python3.6/site-packages/wxtbx
p541
sbaNasg157
(lp542
sg159
(lp543
sg161
(lp544
sg163
(lp545
sg165
(lp546
sg167
(lp547
sg169
(lp548
sg171
(lp549
sbasVmodule_dict
p550
(dp551
g49
g142
sg55
g266
sg54
g248
sg51
g192
sg50
g174
sg52
g210
sg53
g229
sg56
g284
sg67
g456
sg57
g302
sg64
g420
sg59
g342
sg58
g324
sg60
g362
sg61
g380
sg62
g398
sg66
g438
sg68
g474
sg69
g496
sg70
g515
sg71
g533
ssVmodule_dist_paths
p552
(dp553
g49
g154
sg55
g272
sg54
g254
sg51
g0
(g17
g2
Ntp554
Rp555
(dp556
g21
g23
sg26
V./include
p557
sbsg195
g198
sg50
g180
sg52
g216
sg53
g235
sg56
g290
sg67
g462
sg57
g308
sg305
g312
sg64
g426
sg59
g348
sg58
g330
sg60
g368
sg61
g386
sg62
g404
sg401
g408
sg66
g444
sg68
g480
sg69
g502
sg70
g521
sg71
g539
ssVmissing_for_build
p558
g74
((lp559
tp560
Rp561
sVmissing_for_use
p562
g74
((lp563
tp564
Rp565
sVmissing_optional
p566
g74
((lp567
g489
ag490
ag492
ag244
ag491
atp568
Rp569
sVscons_dist_path
p570
g129
sVpythonpath
p571
(lp572
sg26
I01
sVno_bin_python
p573
I01
sVpath_utility
p574
g0
(g17
g2
Ntp575
Rp576
(dp577
g21
g23
sg26
Vlib/python3.6/site-packages/libtbx/command_line/path_utility.py
p578
sbsV_dispatcher_registry
p579
(dp580
g0
(g17
g2
Ntp581
Rp582
(dp583
g21
g23
sg26
Vbin/libtbx.python
p584
sbg41
sg0
(g17
g2
Ntp585
Rp586
(dp587
g21
g23
sg26
Vbin/boost.python
p588
sbg41
sg0
(g17
g2
Ntp589
Rp590
(dp591
g21
g23
sg26
Vbin/omptbx.python
p592
sbg41
sg0
(g17
g2
Ntp593
Rp594
(dp595
g21
g23
sg26
Vbin/fable.python
p596
sbg41
sg0
(g17
g2
Ntp597
Rp598
(dp599
g21
g23
sg26
Vbin/scitbx.python
p600
sbg41
sg0
(g17
g2
Ntp601
Rp602
(dp603
g21
g23
sg26
Vbin/cma_es.python
p604
sbg41
sg0
(g17
g2
Ntp605
Rp606
(dp607
g21
g23
sg26
Vbin/crys3d.python
p608
sbg41
sg0
(g17
g2
Ntp609
Rp610
(dp611
g21
g23
sg26
Vbin/annlib.python
p612
sbg41
sg0
(g17
g2
Ntp613
Rp614
(dp615
g21
g23
sg26
Vbin/cctbx.python
p616
sbg41
sg0
(g17
g2
Ntp617
Rp618
(dp619
g21
g23
sg26
Vbin/smtbx.python
p620
sbg41
sg0
(g17
g2
Ntp621
Rp622
(dp623
g21
g23
sg26
Vbin/ccp4io.python
p624
sbg41
sg0
(g17
g2
Ntp625
Rp626
(dp627
g21
g23
sg26
Vbin/iotbx.python
p628
sbg41
sg0
(g17
g2
Ntp629
Rp630
(dp631
g21
g23
sg26
Vbin/spotfinder.python
p632
sbg41
sg0
(g17
g2
Ntp633
Rp634
(dp635
g21
g23
sg26
Vbin/rstbx.python
p636
sbg41
sg0
(g17
g2
Ntp637
Rp638
(dp639
g21
g23
sg26
Vbin/mmtbx.python
p640
sbg41
sg0
(g17
g2
Ntp641
Rp642
(dp643
g21
g23
sg26
Vbin/cctbx_website.python
p644
sbg41
sg0
(g17
g2
Ntp645
Rp646
(dp647
g21
g23
sg26
Vbin/gltbx.python
p648
sbg41
sg0
(g17
g2
Ntp649
Rp650
(dp651
g21
g23
sg26
Vbin/wxtbx.python
p652
sbg41
sg0
(g17
g2
Ntp653
Rp654
(dp655
g21
g23
sg26
Vbin/libtbx.show_build_path
p656
sbg0
(g17
g2
Ntp657
Rp658
(dp659
g21
g23
sg26
Vlib/python3.6/site-packages/libtbx/command_line/show_build_path.py
p660
sbsg0
(g17
g2
Ntp661
Rp662
(dp663
g21
g23
sg26
Vbin/boost.show_build_path
p664
sbg0
(g17
g2
Ntp665
Rp666
(dp667
g21
g23
sg26
Vlib/python3.6/site-packages/libtbx/command_line/show_build_path.py
p668
sbsg0
(g17
g2
Ntp669
Rp670
(dp671
g21
g23
sg26
Vbin/omptbx.show_build_path
p672
sbg0
(g17
g2
Ntp673
Rp674
(dp675
g21
g23
sg26
Vlib/python3.6/site-packages/libtbx/command_line/show_build_path.py
p676
sbsg0
(g17
g2
Ntp677
Rp678
(dp679
g21
g23
sg26
Vbin/fable.show_build_path
p680
sbg0
(g17
g2
Ntp681
Rp682
(dp683
g21
g23
sg26
Vlib/python3.6/site-packages/libtbx/command_line/show_build_path.py
p684
sbsg0
(g17
g2
Ntp685
Rp686
(dp687
g21
g23
sg26
Vbin/scitbx.show_build_path
p688
sbg0
(g17
g2
Ntp689
Rp690
(dp691
g21
g23
sg26
Vlib/python3.6/site-packages/libtbx/command_line/show_build_path.py
p692
sbsg0
(g17
g2
Ntp693
Rp694
(dp695
g21
g23
sg26
Vbin/cma_es.show_build_path
p696
sbg0
(g17
g2
Ntp697
Rp698
(dp699
g21
g23
sg26
Vlib/python3.6/site-packages/libtbx/command_line/show_build_path.py
p700
sbsg0
(g17
g2
Ntp701
Rp702
(dp703
g21
g23
sg26
Vbin/crys3d.show_build_path
p704
sbg0
(g17
g2
Ntp705
Rp706
(dp707
g21
g23
sg26
Vlib/python3.6/site-packages/libtbx/command_line/show_build_path.py
p708
sbsg0
(g17
g2
Ntp709
Rp710
(dp711
g21
g23
sg26
Vbin/annlib.show_build_path
p712
sbg0
(g17
g2
Ntp713
Rp714
(dp715
g21
g23
sg26
Vlib/python3.6/site-packages/libtbx/command_line/show_build_path.py
p716
sbsg0
(g17
g2
Ntp717
Rp718
(dp719
g21
g23
sg26
Vbin/cctbx.show_build_path
p720
sbg0
(g17
g2
Ntp721
Rp722
(dp723
g21
g23
sg26
Vlib/python3.6/site-packages/libtbx/command_line/show_build_path.py
p724
sbsg0
(g17
g2
Ntp725
Rp726
(dp727
g21
g23
sg26
Vbin/smtbx.show_build_path
p728
sbg0
(g17
g2
Ntp729
Rp730
(dp731
g21
g23
sg26
Vlib/python3.6/site-packages/libtbx/command_line/show_build_path.py
p732
sbsg0
(g17
g2
Ntp733
Rp734
(dp735
g21
g23
sg26
Vbin/ccp4io.show_build_path
p736
sbg0
(g17
g2
Ntp737
Rp738
(dp739
g21
g23
sg26
Vlib/python3.6/site-packages/libtbx/command_line/show_build_path.py
p740
sbsg0
(g17
g2
Ntp741
Rp742
(dp743
g21
g23
sg26
Vbin/iotbx.show_build_path
p744
sbg0
(g17
g2
Ntp745
Rp746
(dp747
g21
g23
sg26
Vlib/python3.6/site-packages/libtbx/command_line/show_build_path.py
p748
sbsg0
(g17
g2
Ntp749
Rp750
(dp751
g21
g23
sg26
Vbin/spotfinder.show_build_path
p752
sbg0
(g17
g2
Ntp753
Rp754
(dp755
g21
g23
sg26
Vlib/python3.6/site-packages/libtbx/command_line/show_build_path.py
p756
sbsg0
(g17
g2
Ntp757
Rp758
(dp759
g21
g23
sg26
Vbin/rstbx.show_build_path
p760
sbg0
(g17
g2
Ntp761
Rp762
(dp763
g21
g23
sg26
Vlib/python3.6/site-packages/libtbx/command_line/show_build_path.py
p764
sbsg0
(g17
g2
Ntp765
Rp766
(dp767
g21
g23
sg26
Vbin/mmtbx.show_build_path
p768
sbg0
(g17
g2
Ntp769
Rp770
(dp771
g21
g23
sg26
Vlib/python3.6/site-packages/libtbx/command_line/show_build_path.py
p772
sbsg0
(g17
g2
Ntp773
Rp774
(dp775
g21
g23
sg26
Vbin/cctbx_website.show_build_path
p776
sbg0
(g17
g2
Ntp777
Rp778
(dp779
g21
g23
sg26
Vlib/python3.6/site-packages/libtbx/command_line/show_build_path.py
p780
sbsg0
(g17
g2
Ntp781
Rp782
(dp783
g21
g23
sg26
Vbin/gltbx.show_build_path
p784
sbg0
(g17
g2
Ntp785
Rp786
(dp787
g21
g23
sg26
Vlib/python3.6/site-packages/libtbx/command_line/show_build_path.py
p788
sbsg0
(g17
g2
Ntp789
Rp790
(dp791
g21
g23
sg26
Vbin/wxtbx.show_build_path
p792
sbg0
(g17
g2
Ntp793
Rp794
(dp795
g21
g23
sg26
Vlib/python3.6/site-packages/libtbx/command_line/show_build_path.py
p796
sbsg0
(g17
g2
Ntp797
Rp798
(dp799
g21
g23
sg26
Vbin/libtbx.show_dist_paths
p800
sbg0
(g17
g2
Ntp801
Rp802
(dp803
g21
g23
sg26
Vlib/python3.6/site-packages/libtbx/command_line/show_dist_paths.py
p804
sbsg0
(g17
g2
Ntp805
Rp806
(dp807
g21
g23
sg26
Vbin/boost.show_dist_paths
p808
sbg0
(g17
g2
Ntp809
Rp810
(dp811
g21
g23
sg26
Vlib/python3.6/site-packages/libtbx/command_line/show_dist_paths.py
p812
sbsg0
(g17
g2
Ntp813
Rp814
(dp815
g21
g23
sg26
Vbin/omptbx.show_dist_paths
p816
sbg0
(g17
g2
Ntp817
Rp818
(dp819
g21
g23
sg26
Vlib/python3.6/site-packages/libtbx/command_line/show_dist_paths.py
p820
sbsg0
(g17
g2
Ntp821
Rp822
(dp823
g21
g23
sg26
Vbin/fable.show_dist_paths
p824
sbg0
(g17
g2
Ntp825
Rp826
(dp827
g21
g23
sg26
Vlib/python3.6/site-packages/libtbx/command_line/show_dist_paths.py
p828
sbsg0
(g17
g2
Ntp829
Rp830
(dp831
g21
g23
sg26
Vbin/scitbx.show_dist_paths
p832
sbg0
(g17
g2
Ntp833
Rp834
(dp835
g21
g23
sg26
Vlib/python3.6/site-packages/libtbx/command_line/show_dist_paths.py
p836
sbsg0
(g17
g2
Ntp837
Rp838
(dp839
g21
g23
sg26
Vbin/cma_es.show_dist_paths
p840
sbg0
(g17
g2
Ntp841
Rp842
(dp843
g21
g23
sg26
Vlib/python3.6/site-packages/libtbx/command_line/show_dist_paths.py
p844
sbsg0
(g17
g2
Ntp845
Rp846
(dp847
g21
g23
sg26
Vbin/crys3d.show_dist_paths
p848
sbg0
(g17
g2
Ntp849
Rp850
(dp851
g21
g23
sg26
Vlib/python3.6/site-packages/libtbx/command_line/show_dist_paths.py
p852
sbsg0
(g17
g2
Ntp853
Rp854
(dp855
g21
g23
sg26
Vbin/annlib.show_dist_paths
p856
sbg0
(g17
g2
Ntp857
Rp858
(dp859
g21
g23
sg26
Vlib/python3.6/site-packages/libtbx/command_line/show_dist_paths.py
p860
sbsg0
(g17
g2
Ntp861
Rp862
(dp863
g21
g23
sg26
Vbin/cctbx.show_dist_paths
p864
sbg0
(g17
g2
Ntp865
Rp866
(dp867
g21
g23
sg26
Vlib/python3.6/site-packages/libtbx/command_line/show_dist_paths.py
p868
sbsg0
(g17
g2
Ntp869
Rp870
(dp871
g21
g23
sg26
Vbin/smtbx.show_dist_paths
p872
sbg0
(g17
g2
Ntp873
Rp874
(dp875
g21
g23
sg26
Vlib/python3.6/site-packages/libtbx/command_line/show_dist_paths.py
p876
sbsg0
(g17
g2
Ntp877
Rp878
(dp879
g21
g23
sg26
Vbin/ccp4io.show_dist_paths
p880
sbg0
(g17
g2
Ntp881
Rp882
(dp883
g21
g23
sg26
Vlib/python3.6/site-packages/libtbx/command_line/show_dist_paths.py
p884
sbsg0
(g17
g2
Ntp885
Rp886
(dp887
g21
g23
sg26
Vbin/iotbx.show_dist_paths
p888
sbg0
(g17
g2
Ntp889
Rp890
(dp891
g21
g23
sg26
Vlib/python3.6/site-packages/libtbx/command_line/show_dist_paths.py
p892
sbsg0
(g17
g2
Ntp893
Rp894
(dp895
g21
g23
sg26
Vbin/spotfinder.show_dist_paths
p896
sbg0
(g17
g2
Ntp897
Rp898
(dp899
g21
g23
sg26
Vlib/python3.6/site-packages/libtbx/command_line/show_dist_paths.py
p900
sbsg0
(g17
g2
Ntp901
Rp902
(dp903
g21
g23
sg26
Vbin/rstbx.show_dist_paths
p904
sbg0
(g17
g2
Ntp905
Rp906
(dp907
g21
g23
sg26
Vlib/python3.6/site-packages/libtbx/command_line/show_dist_paths.py
p908
sbsg0
(g17
g2
Ntp909
Rp910
(dp911
g21
g23
sg26
Vbin/mmtbx.show_dist_paths
p912
sbg0
(g17
g2
Ntp913
Rp914
(dp915
g21
g23
sg26
Vlib/python3.6/site-packages/libtbx/command_line/show_dist_paths.py
p916
sbsg0
(g17
g2
Ntp917
Rp918
(dp919
g21
g23
sg26
Vbin/cctbx_website.show_dist_paths
p920
sbg0
(g17
g2
Ntp921
Rp922
(dp923
g21
g23
sg26
Vlib/python3.6/site-packages/libtbx/command_line/show_dist_paths.py
p924
sbsg0
(g17
g2
Ntp925
Rp926
(dp927
g21
g23
sg26
Vbin/gltbx.show_dist_paths
p928
sbg0
(g17
g2
Ntp929
Rp930
(dp931
g21
g23
sg26
Vlib/python3.6/site-packages/libtbx/command_line/show_dist_paths.py
p932
sbsg0
(g17
g2
Ntp933
Rp934
(dp935
g21
g23
sg26
Vbin/wxtbx.show_dist_paths
p936
sbg0
(g17
g2
Ntp937
Rp938
(dp939
g21
g23
sg26
Vlib/python3.6/site-packages/libtbx/command_line/show_dist_paths.py
p940
sbsg0
(g17
g2
Ntp941
Rp942
(dp943
g21
g23
sg26
Vbin/libtbx.dtrace
p944
sbg0
(g17
g2
Ntp945
Rp946
(dp947
g21
g23
sg26
Vlib/python3.6/site-packages/libtbx/command_line/dtrace.py
p948
sbsg0
(g17
g2
Ntp949
Rp950
(dp951
g21
g23
sg26
Vbin/libtbx.seconds_since_the_epoch
p952
sbg0
(g17
g2
Ntp953
Rp954
(dp955
g21
g23
sg26
Vlib/python3.6/site-packages/libtbx/command_line/seconds_since_the_epoch.py
p956
sbsg0
(g17
g2
Ntp957
Rp958
(dp959
g21
g23
sg26
Vbin/libtbx.find_under_build
p960
sbg0
(g17
g2
Ntp961
Rp962
(dp963
g21
g23
sg26
Vlib/python3.6/site-packages/libtbx/command_line/find_under_build.py
p964
sbsg0
(g17
g2
Ntp965
Rp966
(dp967
g21
g23
sg26
Vbin/libtbx.run_pickled_function
p968
sbg0
(g17
g2
Ntp969
Rp970
(dp971
g21
g23
sg26
Vlib/python3.6/site-packages/libtbx/command_line/run_pickled_function.py
p972
sbsg0
(g17
g2
Ntp973
Rp974
(dp975
g21
g23
sg26
Vbin/libtbx.refresh
p976
sbg0
(g17
g2
Ntp977
Rp978
(dp979
g21
g23
sg26
Vlib/python3.6/site-packages/libtbx/command_line/refresh.sh
p980
sbsg0
(g17
g2
Ntp981
Rp982
(dp983
g21
g23
sg26
Vbin/libtbx.assert_stdin_contains_strings
p984
sbg0
(g17
g2
Ntp985
Rp986
(dp987
g21
g23
sg26
Vlib/python3.6/site-packages/libtbx/command_line/assert_stdin_contains_strings.py
p988
sbsg0
(g17
g2
Ntp989
Rp990
(dp991
g21
g23
sg26
Vbin/libtbx.assert_stdin_does_not_contain_strings
p992
sbg986
sg0
(g17
g2
Ntp993
Rp994
(dp995
g21
g23
sg26
Vbin/libtbx.csh
p996
sbg0
(g17
g2
Ntp997
Rp998
(dp999
g21
g23
sg26
Vlib/python3.6/site-packages/libtbx/command_line/csh.sh
p1000
sbsg0
(g17
g2
Ntp1001
Rp1002
(dp1003
g21
g23
sg26
Vbin/libtbx.py_compile_all
p1004
sbg0
(g17
g2
Ntp1005
Rp1006
(dp1007
g21
g23
sg26
Vlib/python3.6/site-packages/libtbx/command_line/py_compile_all.py
p1008
sbsg0
(g17
g2
Ntp1009
Rp1010
(dp1011
g21
g23
sg26
Vbin/libtbx.show_but_no_repr
p1012
sbg0
(g17
g2
Ntp1013
Rp1014
(dp1015
g21
g23
sg26
Vlib/python3.6/site-packages/libtbx/command_line/show_but_no_repr.py
p1016
sbsg0
(g17
g2
Ntp1017
Rp1018
(dp1019
g21
g23
sg26
Vbin/libtbx.env_run
p1020
sbg0
(g17
g2
Ntp1021
Rp1022
(dp1023
g21
g23
sg26
Vlib/python3.6/site-packages/libtbx/command_line/env_run.py
p1024
sbsg0
(g17
g2
Ntp1025
Rp1026
(dp1027
g21
g23
sg26
Vbin/libtbx.find_untested
p1028
sbg0
(g17
g2
Ntp1029
Rp1030
(dp1031
g21
g23
sg26
Vlib/python3.6/site-packages/libtbx/command_line/find_untested.py
p1032
sbsg0
(g17
g2
Ntp1033
Rp1034
(dp1035
g21
g23
sg26
Vbin/libtbx.create_selfx
p1036
sbg0
(g17
g2
Ntp1037
Rp1038
(dp1039
g21
g23
sg26
Vlib/python3.6/site-packages/libtbx/command_line/create_selfx.py
p1040
sbsg0
(g17
g2
Ntp1041
Rp1042
(dp1043
g21
g23
sg26
Vbin/libtbx.remote_processing
p1044
sbg0
(g17
g2
Ntp1045
Rp1046
(dp1047
g21
g23
sg26
Vlib/python3.6/site-packages/libtbx/command_line/remote_processing.py
p1048
sbsg0
(g17
g2
Ntp1049
Rp1050
(dp1051
g21
g23
sg26
Vbin/libtbx.show_all_on_path
p1052
sbg0
(g17
g2
Ntp1053
Rp1054
(dp1055
g21
g23
sg26
Vlib/python3.6/site-packages/libtbx/command_line/show_all_on_path.py
p1056
sbsg0
(g17
g2
Ntp1057
Rp1058
(dp1059
g21
g23
sg26
Vbin/libtbx.phil
p1060
sbg0
(g17
g2
Ntp1061
Rp1062
(dp1063
g21
g23
sg26
Vlib/python3.6/site-packages/libtbx/command_line/phil.py
p1064
sbsg0
(g17
g2
Ntp1065
Rp1066
(dp1067
g21
g23
sg26
Vbin/libtbx.nequal
p1068
sbg0
(g17
g2
Ntp1069
Rp1070
(dp1071
g21
g23
sg26
Vlib/python3.6/site-packages/libtbx/command_line/nequal.py
p1072
sbsg0
(g17
g2
Ntp1073
Rp1074
(dp1075
g21
g23
sg26
Vbin/libtbx.extract_code_from_txt
p1076
sbg0
(g17
g2
Ntp1077
Rp1078
(dp1079
g21
g23
sg26
Vlib/python3.6/site-packages/libtbx/command_line/extract_code_from_txt.py
p1080
sbsg0
(g17
g2
Ntp1081
Rp1082
(dp1083
g21
g23
sg26
Vbin/libtbx.create_windows_exe
p1084
sbg0
(g17
g2
Ntp1085
Rp1086
(dp1087
g21
g23
sg26
Vlib/python3.6/site-packages/libtbx/command_line/create_windows_exe.py
p1088
sbsg0
(g17
g2
Ntp1089
Rp1090
(dp1091
g21
g23
sg26
Vbin/libtbx.any2unix
p1092
sbg0
(g17
g2
Ntp1093
Rp1094
(dp1095
g21
g23
sg26
Vlib/python3.6/site-packages/libtbx/command_line/any2unix.py
p1096
sbsg0
(g17
g2
Ntp1097
Rp1098
(dp1099
g21
g23
sg26
Vbin/libtbx.show_module_dependencies
p1100
sbg0
(g17
g2
Ntp1101
Rp1102
(dp1103
g21
g23
sg26
Vlib/python3.6/site-packages/libtbx/command_line/show_module_dependencies.py
p1104
sbsg0
(g17
g2
Ntp1105
Rp1106
(dp1107
g21
g23
sg26
Vbin/libtbx.list_source_files_sorted_by_size
p1108
sbg0
(g17
g2
Ntp1109
Rp1110
(dp1111
g21
g23
sg26
Vlib/python3.6/site-packages/libtbx/command_line/list_source_files_sorted_by_size.py
p1112
sbsg0
(g17
g2
Ntp1113
Rp1114
(dp1115
g21
g23
sg26
Vbin/libtbx.show_include_paths
p1116
sbg0
(g17
g2
Ntp1117
Rp1118
(dp1119
g21
g23
sg26
Vlib/python3.6/site-packages/libtbx/command_line/show_include_paths.py
p1120
sbsg0
(g17
g2
Ntp1121
Rp1122
(dp1123
g21
g23
sg26
Vbin/libtbx.assert_not_show_diff
p1124
sbg0
(g17
g2
Ntp1125
Rp1126
(dp1127
g21
g23
sg26
Vlib/python3.6/site-packages/libtbx/command_line/assert_not_show_diff.py
p1128
sbsg0
(g17
g2
Ntp1129
Rp1130
(dp1131
g21
g23
sg26
Vbin/libtbx.wait_for_file
p1132
sbg0
(g17
g2
Ntp1133
Rp1134
(dp1135
g21
g23
sg26
Vlib/python3.6/site-packages/libtbx/command_line/wait_for_file.py
p1136
sbsg0
(g17
g2
Ntp1137
Rp1138
(dp1139
g21
g23
sg26
Vbin/libtbx.git_avoid_merges
p1140
sbg0
(g17
g2
Ntp1141
Rp1142
(dp1143
g21
g23
sg26
Vlib/python3.6/site-packages/libtbx/command_line/git_avoid_merges.py
p1144
sbsg0
(g17
g2
Ntp1145
Rp1146
(dp1147
g21
g23
sg26
Vbin/libtbx.assert_stdin
p1148
sbg0
(g17
g2
Ntp1149
Rp1150
(dp1151
g21
g23
sg26
Vlib/python3.6/site-packages/libtbx/command_line/assert_stdin.py
p1152
sbsg0
(g17
g2
Ntp1153
Rp1154
(dp1155
g21
g23
sg26
Vbin/libtbx.create_unzipsfx
p1156
sbg0
(g17
g2
Ntp1157
Rp1158
(dp1159
g21
g23
sg26
Vlib/python3.6/site-packages/libtbx/command_line/create_unzipsfx.py
p1160
sbsg0
(g17
g2
Ntp1161
Rp1162
(dp1163
g21
g23
sg26
Vbin/libtbx.show_commands
p1164
sbg0
(g17
g2
Ntp1165
Rp1166
(dp1167
g21
g23
sg26
Vlib/python3.6/site-packages/libtbx/command_line/show_commands.py
p1168
sbsg0
(g17
g2
Ntp1169
Rp1170
(dp1171
g21
g23
sg26
Vbin/libtbx.pdflatex
p1172
sbg0
(g17
g2
Ntp1173
Rp1174
(dp1175
g21
g23
sg26
Vlib/python3.6/site-packages/libtbx/command_line/pdflatex.sh
p1176
sbsg0
(g17
g2
Ntp1177
Rp1178
(dp1179
g21
g23
sg26
Vbin/libtbx.show_numeric_version
p1180
sbg0
(g17
g2
Ntp1181
Rp1182
(dp1183
g21
g23
sg26
Vlib/python3.6/site-packages/libtbx/command_line/show_numeric_version.py
p1184
sbsg0
(g17
g2
Ntp1185
Rp1186
(dp1187
g21
g23
sg26
Vbin/libtbx.bootstrap
p1188
sbg0
(g17
g2
Ntp1189
Rp1190
(dp1191
g21
g23
sg26
Vlib/python3.6/site-packages/libtbx/command_line/bootstrap.py
p1192
sbsg0
(g17
g2
Ntp1193
Rp1194
(dp1195
g21
g23
sg26
Vbin/libtbx.bundle_as_selfx
p1196
sbg0
(g17
g2
Ntp1197
Rp1198
(dp1199
g21
g23
sg26
Vlib/python3.6/site-packages/libtbx/command_line/bundle_as_selfx.csh
p1200
sbsg0
(g17
g2
Ntp1201
Rp1202
(dp1203
g21
g23
sg26
Vbin/libtbx.install_conda
p1204
sbg0
(g17
g2
Ntp1205
Rp1206
(dp1207
g21
g23
sg26
Vlib/python3.6/site-packages/libtbx/command_line/install_conda.py
p1208
sbsg0
(g17
g2
Ntp1209
Rp1210
(dp1211
g21
g23
sg26
Vbin/libtbx.show_python_dependencies
p1212
sbg0
(g17
g2
Ntp1213
Rp1214
(dp1215
g21
g23
sg26
Vlib/python3.6/site-packages/libtbx/command_line/show_python_dependencies.py
p1216
sbsg0
(g17
g2
Ntp1217
Rp1218
(dp1219
g21
g23
sg26
Vbin/libtbx.path_utility
p1220
sbg0
(g17
g2
Ntp1221
Rp1222
(dp1223
g21
g23
sg26
Vlib/python3.6/site-packages/libtbx/command_line/path_utility.py
p1224
sbsg0
(g17
g2
Ntp1225
Rp1226
(dp1227
g21
g23
sg26
Vbin/libtbx.start_process
p1228
sbg0
(g17
g2
Ntp1229
Rp1230
(dp1231
g21
g23
sg26
Vlib/python3.6/site-packages/libtbx/command_line/start_process.py
p1232
sbsg0
(g17
g2
Ntp1233
Rp1234
(dp1235
g21
g23
sg26
Vbin/libtbx.epydoc_run
p1236
sbg0
(g17
g2
Ntp1237
Rp1238
(dp1239
g21
g23
sg26
Vlib/python3.6/site-packages/libtbx/command_line/epydoc_run.py
p1240
sbsg0
(g17
g2
Ntp1241
Rp1242
(dp1243
g21
g23
sg26
Vbin/libtbx.show_number_of_processors
p1244
sbg0
(g17
g2
Ntp1245
Rp1246
(dp1247
g21
g23
sg26
Vlib/python3.6/site-packages/libtbx/command_line/show_number_of_processors.py
p1248
sbsg0
(g17
g2
Ntp1249
Rp1250
(dp1251
g21
g23
sg26
Vbin/libtbx.raise_exception_for_testing
p1252
sbg0
(g17
g2
Ntp1253
Rp1254
(dp1255
g21
g23
sg26
Vlib/python3.6/site-packages/libtbx/command_line/raise_exception_for_testing.py
p1256
sbsg0
(g17
g2
Ntp1257
Rp1258
(dp1259
g21
g23
sg26
Vbin/libtbx.bundle_as_exe
p1260
sbg0
(g17
g2
Ntp1261
Rp1262
(dp1263
g21
g23
sg26
Vlib/python3.6/site-packages/libtbx/command_line/bundle_as_exe.py
p1264
sbsg0
(g17
g2
Ntp1265
Rp1266
(dp1267
g21
g23
sg26
Vbin/libtbx.import_all_python
p1268
sbg0
(g17
g2
Ntp1269
Rp1270
(dp1271
g21
g23
sg26
Vlib/python3.6/site-packages/libtbx/command_line/import_all_python.py
p1272
sbsg0
(g17
g2
Ntp1273
Rp1274
(dp1275
g21
g23
sg26
Vbin/libtbx.list_modules
p1276
sbg0
(g17
g2
Ntp1277
Rp1278
(dp1279
g21
g23
sg26
Vlib/python3.6/site-packages/libtbx/command_line/list_modules.py
p1280
sbsg0
(g17
g2
Ntp1281
Rp1282
(dp1283
g21
g23
sg26
Vbin/libtbx.find_clutter
p1284
sbg0
(g17
g2
Ntp1285
Rp1286
(dp1287
g21
g23
sg26
Vlib/python3.6/site-packages/libtbx/command_line/find_clutter.py
p1288
sbsg0
(g17
g2
Ntp1289
Rp1290
(dp1291
g21
g23
sg26
Vbin/libtbx.analyse_code_comments
p1292
sbg0
(g17
g2
Ntp1293
Rp1294
(dp1295
g21
g23
sg26
Vlib/python3.6/site-packages/libtbx/command_line/analyse_code_comments.py
p1296
sbsg0
(g17
g2
Ntp1297
Rp1298
(dp1299
g21
g23
sg26
Vbin/libtbx.find_files
p1300
sbg0
(g17
g2
Ntp1301
Rp1302
(dp1303
g21
g23
sg26
Vlib/python3.6/site-packages/libtbx/command_line/find_files.py
p1304
sbsg0
(g17
g2
Ntp1305
Rp1306
(dp1307
g21
g23
sg26
Vbin/libtbx.assert_stdin_ends_with
p1308
sbg0
(g17
g2
Ntp1309
Rp1310
(dp1311
g21
g23
sg26
Vlib/python3.6/site-packages/libtbx/command_line/assert_stdin_ends_with.py
p1312
sbsg0
(g17
g2
Ntp1313
Rp1314
(dp1315
g21
g23
sg26
Vbin/libtbx.make_dist
p1316
sbg0
(g17
g2
Ntp1317
Rp1318
(dp1319
g21
g23
sg26
Vlib/python3.6/site-packages/libtbx/command_line/make_dist.py
p1320
sbsg0
(g17
g2
Ntp1321
Rp1322
(dp1323
g21
g23
sg26
Vbin/libtbx.printenv
p1324
sbg0
(g17
g2
Ntp1325
Rp1326
(dp1327
g21
g23
sg26
Vlib/python3.6/site-packages/libtbx/command_line/printenv.py
p1328
sbsg0
(g17
g2
Ntp1329
Rp1330
(dp1331
g21
g23
sg26
Vbin/libtbx.find_unused_imports_crude
p1332
sbg0
(g17
g2
Ntp1333
Rp1334
(dp1335
g21
g23
sg26
Vlib/python3.6/site-packages/libtbx/command_line/find_unused_imports_crude.py
p1336
sbsg0
(g17
g2
Ntp1337
Rp1338
(dp1339
g21
g23
sg26
Vbin/libtbx.show_env
p1340
sbg0
(g17
g2
Ntp1341
Rp1342
(dp1343
g21
g23
sg26
Vlib/python3.6/site-packages/libtbx/command_line/show_env.py
p1344
sbsg0
(g17
g2
Ntp1345
Rp1346
(dp1347
g21
g23
sg26
Vbin/libtbx.tcsh
p1348
sbg0
(g17
g2
Ntp1349
Rp1350
(dp1351
g21
g23
sg26
Vlib/python3.6/site-packages/libtbx/command_line/tcsh.sh
p1352
sbsg0
(g17
g2
Ntp1353
Rp1354
(dp1355
g21
g23
sg26
Vbin/libtbx.bash
p1356
sbg0
(g17
g2
Ntp1357
Rp1358
(dp1359
g21
g23
sg26
Vlib/python3.6/site-packages/libtbx/command_line/bash.sh
p1360
sbsg0
(g17
g2
Ntp1361
Rp1362
(dp1363
g21
g23
sg26
Vbin/libtbx.sge_available_slots
p1364
sbg0
(g17
g2
Ntp1365
Rp1366
(dp1367
g21
g23
sg26
Vlib/python3.6/site-packages/libtbx/command_line/sge_available_slots.py
p1368
sbsg0
(g17
g2
Ntp1369
Rp1370
(dp1371
g21
g23
sg26
Vbin/libtbx.show_pythonpath
p1372
sbg0
(g17
g2
Ntp1373
Rp1374
(dp1375
g21
g23
sg26
Vlib/python3.6/site-packages/libtbx/command_line/show_pythonpath.py
p1376
sbsg0
(g17
g2
Ntp1377
Rp1378
(dp1379
g21
g23
sg26
Vbin/libtbx.import_all_ext
p1380
sbg0
(g17
g2
Ntp1381
Rp1382
(dp1383
g21
g23
sg26
Vlib/python3.6/site-packages/libtbx/command_line/import_all_ext.py
p1384
sbsg0
(g17
g2
Ntp1385
Rp1386
(dp1387
g21
g23
sg26
Vbin/libtbx.remove_tree
p1388
sbg0
(g17
g2
Ntp1389
Rp1390
(dp1391
g21
g23
sg26
Vlib/python3.6/site-packages/libtbx/command_line/remove_tree.py
p1392
sbsg0
(g17
g2
Ntp1393
Rp1394
(dp1395
g21
g23
sg26
Vbin/libtbx.show_repository_paths
p1396
sbg0
(g17
g2
Ntp1397
Rp1398
(dp1399
g21
g23
sg26
Vlib/python3.6/site-packages/libtbx/command_line/show_repository_paths.py
p1400
sbsg0
(g17
g2
Ntp1401
Rp1402
(dp1403
g21
g23
sg26
Vbin/libtbx.list_files
p1404
sbg0
(g17
g2
Ntp1405
Rp1406
(dp1407
g21
g23
sg26
Vlib/python3.6/site-packages/libtbx/command_line/list_files.py
p1408
sbsg0
(g17
g2
Ntp1409
Rp1410
(dp1411
g21
g23
sg26
Vbin/libtbx.help
p1412
sbg0
(g17
g2
Ntp1413
Rp1414
(dp1415
g21
g23
sg26
Vlib/python3.6/site-packages/libtbx/command_line/help.py
p1416
sbsg0
(g17
g2
Ntp1417
Rp1418
(dp1419
g21
g23
sg26
Vbin/libtbx.scons
p1420
sbg0
(g17
g2
Ntp1421
Rp1422
(dp1423
g21
g23
sg26
Vlib/python3.6/site-packages/libtbx/command_line/scons.py
p1424
sbsg0
(g17
g2
Ntp1425
Rp1426
(dp1427
g21
g23
sg26
Vbin/libtbx.clean_clutter
p1428
sbg0
(g17
g2
Ntp1429
Rp1430
(dp1431
g21
g23
sg26
Vlib/python3.6/site-packages/libtbx/command_line/clean_clutter.py
p1432
sbsg0
(g17
g2
Ntp1433
Rp1434
(dp1435
g21
g23
sg26
Vbin/libtbx.assert_line_count
p1436
sbg0
(g17
g2
Ntp1437
Rp1438
(dp1439
g21
g23
sg26
Vlib/python3.6/site-packages/libtbx/command_line/assert_line_count.py
p1440
sbsg0
(g17
g2
Ntp1441
Rp1442
(dp1443
g21
g23
sg26
Vbin/libtbx.exec
p1444
sbg0
(g17
g2
Ntp1445
Rp1446
(dp1447
g21
g23
sg26
Vlib/python3.6/site-packages/libtbx/command_line/exec.sh
p1448
sbsg0
(g17
g2
Ntp1449
Rp1450
(dp1451
g21
g23
sg26
Vbin/libtbx.find_in_repositories
p1452
sbg0
(g17
g2
Ntp1453
Rp1454
(dp1455
g21
g23
sg26
Vlib/python3.6/site-packages/libtbx/command_line/find_in_repositories.py
p1456
sbsg0
(g17
g2
Ntp1457
Rp1458
(dp1459
g21
g23
sg26
Vbin/libtbx.show_build_options
p1460
sbg0
(g17
g2
Ntp1461
Rp1462
(dp1463
g21
g23
sg26
Vlib/python3.6/site-packages/libtbx/command_line/show_build_options.py
p1464
sbsg0
(g17
g2
Ntp1465
Rp1466
(dp1467
g21
g23
sg26
Vbin/libtbx.unpack_in_sources
p1468
sbg0
(g17
g2
Ntp1469
Rp1470
(dp1471
g21
g23
sg26
Vlib/python3.6/site-packages/libtbx/command_line/unpack_in_sources.csh
p1472
sbsg0
(g17
g2
Ntp1473
Rp1474
(dp1475
g21
g23
sg26
Vbin/libtbx.latex
p1476
sbg0
(g17
g2
Ntp1477
Rp1478
(dp1479
g21
g23
sg26
Vlib/python3.6/site-packages/libtbx/command_line/latex.sh
p1480
sbsg0
(g17
g2
Ntp1481
Rp1482
(dp1483
g21
g23
sg26
Vbin/libtbx.start_binary_bundle
p1484
sbg0
(g17
g2
Ntp1485
Rp1486
(dp1487
g21
g23
sg26
Vlib/python3.6/site-packages/libtbx/command_line/start_binary_bundle.py
p1488
sbsg0
(g17
g2
Ntp1489
Rp1490
(dp1491
g21
g23
sg26
Vbin/libtbx.create_cctbx_bundle_for_installer
p1492
sbg0
(g17
g2
Ntp1493
Rp1494
(dp1495
g21
g23
sg26
Vlib/python3.6/site-packages/libtbx/command_line/create_cctbx_bundle_for_installer.py
p1496
sbsg0
(g17
g2
Ntp1497
Rp1498
(dp1499
g21
g23
sg26
Vbin/libtbx.gdb
p1500
sbg0
(g17
g2
Ntp1501
Rp1502
(dp1503
g21
g23
sg26
Vlib/python3.6/site-packages/libtbx/command_line/gdb.sh
p1504
sbsg0
(g17
g2
Ntp1505
Rp1506
(dp1507
g21
g23
sg26
Vbin/libtbx.show_full_command_path
p1508
sbg0
(g17
g2
Ntp1509
Rp1510
(dp1511
g21
g23
sg26
Vlib/python3.6/site-packages/libtbx/command_line/show_full_command_path.py
p1512
sbsg0
(g17
g2
Ntp1513
Rp1514
(dp1515
g21
g23
sg26
Vbin/libtbx.sh
p1516
sbg0
(g17
g2
Ntp1517
Rp1518
(dp1519
g21
g23
sg26
Vlib/python3.6/site-packages/libtbx/command_line/sh.sh
p1520
sbsg0
(g17
g2
Ntp1521
Rp1522
(dp1523
g21
g23
sg26
Vbin/libtbx.show_numpy_version
p1524
sbg0
(g17
g2
Ntp1525
Rp1526
(dp1527
g21
g23
sg26
Vlib/python3.6/site-packages/libtbx/command_line/show_numpy_version.py
p1528
sbsg0
(g17
g2
Ntp1529
Rp1530
(dp1531
g21
g23
sg26
Vbin/libtbx.valgrind
p1532
sbg0
(g17
g2
Ntp1533
Rp1534
(dp1535
g21
g23
sg26
Vlib/python3.6/site-packages/libtbx/command_line/valgrind.sh
p1536
sbsg0
(g17
g2
Ntp1537
Rp1538
(dp1539
g21
g23
sg26
Vbin/libtbx.chunk
p1540
sbg0
(g17
g2
Ntp1541
Rp1542
(dp1543
g21
g23
sg26
Vlib/python3.6/site-packages/libtbx/command_line/chunk.py
p1544
sbsg0
(g17
g2
Ntp1545
Rp1546
(dp1547
g21
g23
sg26
Vbin/sphinx.build
p1548
sbg0
(g17
g2
Ntp1549
Rp1550
(dp1551
g21
g23
sg26
Vlib/python3.6/site-packages/libtbx/command_line/sphinx_build.py
p1552
sbsg0
(g17
g2
Ntp1553
Rp1554
(dp1555
g21
g23
sg26
Vbin/libtbx.find_non_ascii
p1556
sbg0
(g17
g2
Ntp1557
Rp1558
(dp1559
g21
g23
sg26
Vlib/python3.6/site-packages/libtbx/command_line/find_non_ascii.py
p1560
sbsg0
(g17
g2
Ntp1561
Rp1562
(dp1563
g21
g23
sg26
Vbin/libtbx.show_lib_path
p1564
sbg0
(g17
g2
Ntp1565
Rp1566
(dp1567
g21
g23
sg26
Vlib/python3.6/site-packages/libtbx/command_line/show_lib_path.py
p1568
sbsg0
(g17
g2
Ntp1569
Rp1570
(dp1571
g21
g23
sg26
Vbin/libtbx.parallel_simple
p1572
sbg0
(g17
g2
Ntp1573
Rp1574
(dp1575
g21
g23
sg26
Vlib/python3.6/site-packages/libtbx/command_line/parallel_simple.py
p1576
sbsg0
(g17
g2
Ntp1577
Rp1578
(dp1579
g21
g23
sg26
Vbin/libtbx.create_installer
p1580
sbg0
(g17
g2
Ntp1581
Rp1582
(dp1583
g21
g23
sg26
Vlib/python3.6/site-packages/libtbx/command_line/create_installer.py
p1584
sbsg0
(g17
g2
Ntp1585
Rp1586
(dp1587
g21
g23
sg26
Vbin/libtbx.show_python_sys_executable
p1588
sbg0
(g17
g2
Ntp1589
Rp1590
(dp1591
g21
g23
sg26
Vlib/python3.6/site-packages/libtbx/command_line/show_python_sys_executable.py
p1592
sbsg0
(g17
g2
Ntp1593
Rp1594
(dp1595
g21
g23
sg26
Vbin/libtbx.create_mac_app
p1596
sbg0
(g17
g2
Ntp1597
Rp1598
(dp1599
g21
g23
sg26
Vlib/python3.6/site-packages/libtbx/command_line/create_mac_app.py
p1600
sbsg0
(g17
g2
Ntp1601
Rp1602
(dp1603
g21
g23
sg26
Vbin/libtbx.show_host_and_user
p1604
sbg0
(g17
g2
Ntp1605
Rp1606
(dp1607
g21
g23
sg26
Vlib/python3.6/site-packages/libtbx/command_line/show_host_and_user.py
p1608
sbsg0
(g17
g2
Ntp1609
Rp1610
(dp1611
g21
g23
sg26
Vbin/libtbx.show_environ_usage
p1612
sbg0
(g17
g2
Ntp1613
Rp1614
(dp1615
g21
g23
sg26
Vlib/python3.6/site-packages/libtbx/command_line/show_environ_usage.py
p1616
sbsg0
(g17
g2
Ntp1617
Rp1618
(dp1619
g21
g23
sg26
Vbin/libtbx.make_sphinx_html
p1620
sbg0
(g17
g2
Ntp1621
Rp1622
(dp1623
g21
g23
sg26
Vlib/python3.6/site-packages/libtbx/command_line/make_sphinx_html.py
p1624
sbsg0
(g17
g2
Ntp1625
Rp1626
(dp1627
g21
g23
sg26
Vbin/libtbx.easy_qsub
p1628
sbg0
(g17
g2
Ntp1629
Rp1630
(dp1631
g21
g23
sg26
Vlib/python3.6/site-packages/libtbx/command_line/easy_qsub.py
p1632
sbsg0
(g17
g2
Ntp1633
Rp1634
(dp1635
g21
g23
sg26
Vbin/libtbx.create_install_script_bat
p1636
sbg0
(g17
g2
Ntp1637
Rp1638
(dp1639
g21
g23
sg26
Vlib/python3.6/site-packages/libtbx/command_line/create_install_script_bat.py
p1640
sbsg0
(g17
g2
Ntp1641
Rp1642
(dp1643
g21
g23
sg26
Vbin/libtbx.clear_paths
p1644
sbg0
(g17
g2
Ntp1645
Rp1646
(dp1647
g21
g23
sg26
Vlib/python3.6/site-packages/libtbx/command_line/clear_paths.py
p1648
sbsg0
(g17
g2
Ntp1649
Rp1650
(dp1651
g21
g23
sg26
Vbin/libtbx.show_date_and_time
p1652
sbg0
(g17
g2
Ntp1653
Rp1654
(dp1655
g21
g23
sg26
Vlib/python3.6/site-packages/libtbx/command_line/show_date_and_time.py
p1656
sbsg0
(g17
g2
Ntp1657
Rp1658
(dp1659
g21
g23
sg26
Vbin/libtbx.install
p1660
sbg0
(g17
g2
Ntp1661
Rp1662
(dp1663
g21
g23
sg26
Vlib/python3.6/site-packages/libtbx/command_line/install.py
p1664
sbsg0
(g17
g2
Ntp1665
Rp1666
(dp1667
g21
g23
sg26
Vbin/libtbx.sge_qstat_counts
p1668
sbg0
(g17
g2
Ntp1669
Rp1670
(dp1671
g21
g23
sg26
Vlib/python3.6/site-packages/libtbx/command_line/sge_qstat_counts.py
p1672
sbsg0
(g17
g2
Ntp1673
Rp1674
(dp1675
g21
g23
sg26
Vbin/libtbx.find_reserved_names
p1676
sbg0
(g17
g2
Ntp1677
Rp1678
(dp1679
g21
g23
sg26
Vlib/python3.6/site-packages/libtbx/command_line/find_reserved_names.py
p1680
sbsg0
(g17
g2
Ntp1681
Rp1682
(dp1683
g21
g23
sg26
Vbin/libtbx.find_unused_imports
p1684
sbg0
(g17
g2
Ntp1685
Rp1686
(dp1687
g21
g23
sg26
Vlib/python3.6/site-packages/libtbx/command_line/find_unused_imports.py
p1688
sbsg0
(g17
g2
Ntp1689
Rp1690
(dp1691
g21
g23
sg26
Vbin/libtbx.find_old_style_classes
p1692
sbg0
(g17
g2
Ntp1693
Rp1694
(dp1695
g21
g23
sg26
Vlib/python3.6/site-packages/libtbx/command_line/find_old_style_classes.py
p1696
sbsg0
(g17
g2
Ntp1697
Rp1698
(dp1699
g21
g23
sg26
Vbin/libtbx.prime_factors_of
p1700
sbg0
(g17
g2
Ntp1701
Rp1702
(dp1703
g21
g23
sg26
Vlib/python3.6/site-packages/libtbx/command_line/prime_factors_of.py
p1704
sbsg0
(g17
g2
Ntp1705
Rp1706
(dp1707
g21
g23
sg26
Vbin/libtbx.configure
p1708
sbg0
(g17
g2
Ntp1709
Rp1710
(dp1711
g21
g23
sg26
Vlib/python3.6/site-packages/libtbx/command_line/configure.sh
p1712
sbsg0
(g17
g2
Ntp1713
Rp1714
(dp1715
g21
g23
sg26
Vbin/libtbx.run_tests_parallel
p1716
sbg0
(g17
g2
Ntp1717
Rp1718
(dp1719
g21
g23
sg26
Vlib/python3.6/site-packages/libtbx/command_line/run_tests_parallel.py
p1720
sbsg0
(g17
g2
Ntp1721
Rp1722
(dp1723
g21
g23
sg26
Vbin/libtbx.show_variable_names
p1724
sbg0
(g17
g2
Ntp1725
Rp1726
(dp1727
g21
g23
sg26
Vlib/python3.6/site-packages/libtbx/command_line/show_variable_names.py
p1728
sbsg0
(g17
g2
Ntp1729
Rp1730
(dp1731
g21
g23
sg26
Vbin/libtbx.bibtex
p1732
sbg0
(g17
g2
Ntp1733
Rp1734
(dp1735
g21
g23
sg26
Vlib/python3.6/site-packages/libtbx/command_line/bibtex.sh
p1736
sbsg0
(g17
g2
Ntp1737
Rp1738
(dp1739
g21
g23
sg26
Vbin/libtbx.show_bin_path
p1740
sbg0
(g17
g2
Ntp1741
Rp1742
(dp1743
g21
g23
sg26
Vlib/python3.6/site-packages/libtbx/command_line/show_bin_path.py
p1744
sbsg0
(g17
g2
Ntp1745
Rp1746
(dp1747
g21
g23
sg26
Vbin/libtbx.line_count
p1748
sbg0
(g17
g2
Ntp1749
Rp1750
(dp1751
g21
g23
sg26
Vlib/python3.6/site-packages/libtbx/command_line/line_count.py
p1752
sbsg0
(g17
g2
Ntp1753
Rp1754
(dp1755
g21
g23
sg26
Vbin/libtbx.add_from_future_import_division
p1756
sbg0
(g17
g2
Ntp1757
Rp1758
(dp1759
g21
g23
sg26
Vlib/python3.6/site-packages/libtbx/command_line/add_from_future_import_division.py
p1760
sbsg0
(g17
g2
Ntp1761
Rp1762
(dp1763
g21
g23
sg26
Vbin/boost_adaptbx.int_overflow
p1764
sbg0
(g17
g2
Ntp1765
Rp1766
(dp1767
g21
g23
sg26
Vlib/python3.6/site-packages/boost_adaptbx/command_line/int_overflow.py
p1768
sbsg0
(g17
g2
Ntp1769
Rp1770
(dp1771
g21
g23
sg26
Vbin/boost_adaptbx.show_platform_info
p1772
sbg0
(g17
g2
Ntp1773
Rp1774
(dp1775
g21
g23
sg26
Vlib/python3.6/site-packages/boost_adaptbx/command_line/show_platform_info.py
p1776
sbsg0
(g17
g2
Ntp1777
Rp1778
(dp1779
g21
g23
sg26
Vbin/boost_adaptbx.divide_by_zero
p1780
sbg0
(g17
g2
Ntp1781
Rp1782
(dp1783
g21
g23
sg26
Vlib/python3.6/site-packages/boost_adaptbx/command_line/divide_by_zero.py
p1784
sbsg0
(g17
g2
Ntp1785
Rp1786
(dp1787
g21
g23
sg26
Vbin/boost_adaptbx.inexact
p1788
sbg0
(g17
g2
Ntp1789
Rp1790
(dp1791
g21
g23
sg26
Vlib/python3.6/site-packages/boost_adaptbx/command_line/inexact.py
p1792
sbsg0
(g17
g2
Ntp1793
Rp1794
(dp1795
g21
g23
sg26
Vbin/boost_adaptbx.double_overflow
p1796
sbg0
(g17
g2
Ntp1797
Rp1798
(dp1799
g21
g23
sg26
Vlib/python3.6/site-packages/boost_adaptbx/command_line/double_overflow.py
p1800
sbsg0
(g17
g2
Ntp1801
Rp1802
(dp1803
g21
g23
sg26
Vbin/boost_adaptbx.segmentation_fault
p1804
sbg0
(g17
g2
Ntp1805
Rp1806
(dp1807
g21
g23
sg26
Vlib/python3.6/site-packages/boost_adaptbx/command_line/segmentation_fault.py
p1808
sbsg0
(g17
g2
Ntp1809
Rp1810
(dp1811
g21
g23
sg26
Vbin/boost_adaptbx.show_environ_usage
p1812
sbg0
(g17
g2
Ntp1813
Rp1814
(dp1815
g21
g23
sg26
Vlib/python3.6/site-packages/boost_adaptbx/command_line/show_environ_usage.py
p1816
sbsg0
(g17
g2
Ntp1817
Rp1818
(dp1819
g21
g23
sg26
Vbin/boost.gcd
p1820
sbg0
(g17
g2
Ntp1821
Rp1822
(dp1823
g21
g23
sg26
Vlib/python3.6/site-packages/boost_adaptbx/command_line/gcd.py
p1824
sbsg0
(g17
g2
Ntp1825
Rp1826
(dp1827
g21
g23
sg26
Vbin/boost_adaptbx.nested_cpp_loops_with_check_signals
p1828
sbg0
(g17
g2
Ntp1829
Rp1830
(dp1831
g21
g23
sg26
Vlib/python3.6/site-packages/boost_adaptbx/command_line/nested_cpp_loops_with_check_signals.py
p1832
sbsg0
(g17
g2
Ntp1833
Rp1834
(dp1835
g21
g23
sg26
Vbin/boost.lcm
p1836
sbg0
(g17
g2
Ntp1837
Rp1838
(dp1839
g21
g23
sg26
Vlib/python3.6/site-packages/boost_adaptbx/command_line/lcm.py
p1840
sbsg0
(g17
g2
Ntp1841
Rp1842
(dp1843
g21
g23
sg26
Vbin/fable.show_calls
p1844
sbg0
(g17
g2
Ntp1845
Rp1846
(dp1847
g21
g23
sg26
Vlib/python3.6/site-packages/fable/command_line/show_calls.py
p1848
sbsg0
(g17
g2
Ntp1849
Rp1850
(dp1851
g21
g23
sg26
Vbin/fable.split
p1852
sbg0
(g17
g2
Ntp1853
Rp1854
(dp1855
g21
g23
sg26
Vlib/python3.6/site-packages/fable/command_line/split.py
p1856
sbsg0
(g17
g2
Ntp1857
Rp1858
(dp1859
g21
g23
sg26
Vbin/fable.cout
p1860
sbg0
(g17
g2
Ntp1861
Rp1862
(dp1863
g21
g23
sg26
Vlib/python3.6/site-packages/fable/command_line/cout.py
p1864
sbsg0
(g17
g2
Ntp1865
Rp1866
(dp1867
g21
g23
sg26
Vbin/fable.read
p1868
sbg0
(g17
g2
Ntp1869
Rp1870
(dp1871
g21
g23
sg26
Vlib/python3.6/site-packages/fable/command_line/read.py
p1872
sbsg0
(g17
g2
Ntp1873
Rp1874
(dp1875
g21
g23
sg26
Vbin/fable.insert_write_at_start_of_each_procedure
p1876
sbg0
(g17
g2
Ntp1877
Rp1878
(dp1879
g21
g23
sg26
Vlib/python3.6/site-packages/fable/command_line/insert_write_at_start_of_each_procedure.py
p1880
sbsg0
(g17
g2
Ntp1881
Rp1882
(dp1883
g21
g23
sg26
Vbin/fable.fem_include_search_paths
p1884
sbg0
(g17
g2
Ntp1885
Rp1886
(dp1887
g21
g23
sg26
Vlib/python3.6/site-packages/fable/command_line/fem_include_search_paths.py
p1888
sbsg0
(g17
g2
Ntp1889
Rp1890
(dp1891
g21
g23
sg26
Vbin/scitbx.show_exp_times
p1892
sbg0
(g17
g2
Ntp1893
Rp1894
(dp1895
g21
g23
sg26
Vlib/python3.6/site-packages/scitbx/command_line/show_exp_times.py
p1896
sbsg0
(g17
g2
Ntp1897
Rp1898
(dp1899
g21
g23
sg26
Vbin/scitbx.generate_error_h
p1900
sbg0
(g17
g2
Ntp1901
Rp1902
(dp1903
g21
g23
sg26
Vlib/python3.6/site-packages/scitbx/command_line/generate_error_h.py
p1904
sbsg0
(g17
g2
Ntp1905
Rp1906
(dp1907
g21
g23
sg26
Vbin/scitbx.show_sizes
p1908
sbg0
(g17
g2
Ntp1909
Rp1910
(dp1911
g21
g23
sg26
Vlib/python3.6/site-packages/scitbx/command_line/show_sizes.py
p1912
sbsg0
(g17
g2
Ntp1913
Rp1914
(dp1915
g21
g23
sg26
Vbin/scitbx.apply_tapenade_hints
p1916
sbg0
(g17
g2
Ntp1917
Rp1918
(dp1919
g21
g23
sg26
Vlib/python3.6/site-packages/scitbx/command_line/apply_tapenade_hints.py
p1920
sbsg0
(g17
g2
Ntp1921
Rp1922
(dp1923
g21
g23
sg26
Vbin/scitbx.unicode_examples
p1924
sbg0
(g17
g2
Ntp1925
Rp1926
(dp1927
g21
g23
sg26
Vlib/python3.6/site-packages/scitbx/command_line/unicode_examples.py
p1928
sbsg0
(g17
g2
Ntp1929
Rp1930
(dp1931
g21
g23
sg26
Vbin/scitbx.histogram
p1932
sbg0
(g17
g2
Ntp1933
Rp1934
(dp1935
g21
g23
sg26
Vlib/python3.6/site-packages/scitbx/command_line/histogram.py
p1936
sbsg0
(g17
g2
Ntp1937
Rp1938
(dp1939
g21
g23
sg26
Vbin/cctbx.visualize_r_factors
p1940
sbg0
(g17
g2
Ntp1941
Rp1942
(dp1943
g21
g23
sg26
Vlib/python3.6/site-packages/crys3d/command_line/visualize_r_factors.py
p1944
sbsg0
(g17
g2
Ntp1945
Rp1946
(dp1947
g21
g23
sg26
Vbin/crys3d.model_viewer
p1948
sbg0
(g17
g2
Ntp1949
Rp1950
(dp1951
g21
g23
sg26
Vlib/python3.6/site-packages/crys3d/command_line/model_viewer.py
p1952
sbsg0
(g17
g2
Ntp1953
Rp1954
(dp1955
g21
g23
sg26
Vbin/cctbx.HKLviewer
p1956
sbg0
(g17
g2
Ntp1957
Rp1958
(dp1959
g21
g23
sg26
Vlib/python3.6/site-packages/crys3d/command_line/HKLviewer.py
p1960
sbsg0
(g17
g2
Ntp1961
Rp1962
(dp1963
g21
g23
sg26
Vbin/phasertng.HKLviewer
p1964
sbg1958
sg0
(g17
g2
Ntp1965
Rp1966
(dp1967
g21
g23
sg26
Vbin/cctbx.multiplicity_viewer
p1968
sbg0
(g17
g2
Ntp1969
Rp1970
(dp1971
g21
g23
sg26
Vlib/python3.6/site-packages/crys3d/command_line/multiplicity_viewer.py
p1972
sbsg0
(g17
g2
Ntp1973
Rp1974
(dp1975
g21
g23
sg26
Vbin/crys3d.qttbx.view_structure
p1976
sbg0
(g17
g2
Ntp1977
Rp1978
(dp1979
g21
g23
sg26
Vlib/python3.6/site-packages/crys3d/command_line/qttbx.view_structure.py
p1980
sbsg0
(g17
g2
Ntp1981
Rp1982
(dp1983
g21
g23
sg26
Vbin/cctbx.data_viewer
p1984
sbg0
(g17
g2
Ntp1985
Rp1986
(dp1987
g21
g23
sg26
Vlib/python3.6/site-packages/crys3d/command_line/hklview.py
p1988
sbsg0
(g17
g2
Ntp1989
Rp1990
(dp1991
g21
g23
sg26
Vbin/cctbx.precession_view
p1992
sbg0
(g17
g2
Ntp1993
Rp1994
(dp1995
g21
g23
sg26
Vlib/python3.6/site-packages/cctbx/command_line/precession_view.py
p1996
sbsg0
(g17
g2
Ntp1997
Rp1998
(dp1999
g21
g23
sg26
Vbin/cctbx.space_group_info
p2000
sbg0
(g17
g2
Ntp2001
Rp2002
(dp2003
g21
g23
sg26
Vlib/python3.6/site-packages/cctbx/command_line/space_group_info.py
p2004
sbsg0
(g17
g2
Ntp2005
Rp2006
(dp2007
g21
g23
sg26
Vbin/cctbx.brehm_diederichs
p2008
sbg0
(g17
g2
Ntp2009
Rp2010
(dp2011
g21
g23
sg26
Vlib/python3.6/site-packages/cctbx/command_line/brehm_diederichs.py
p2012
sbsg0
(g17
g2
Ntp2013
Rp2014
(dp2015
g21
g23
sg26
Vbin/cctbx.subgroups
p2016
sbg0
(g17
g2
Ntp2017
Rp2018
(dp2019
g21
g23
sg26
Vlib/python3.6/site-packages/cctbx/command_line/subgroups.py
p2020
sbsg0
(g17
g2
Ntp2021
Rp2022
(dp2023
g21
g23
sg26
Vbin/cctbx.wavelength_units
p2024
sbg0
(g17
g2
Ntp2025
Rp2026
(dp2027
g21
g23
sg26
Vlib/python3.6/site-packages/cctbx/command_line/wavelength_units.py
p2028
sbsg0
(g17
g2
Ntp2029
Rp2030
(dp2031
g21
g23
sg26
Vbin/cctbx.euclidean_model_matching
p2032
sbg0
(g17
g2
Ntp2033
Rp2034
(dp2035
g21
g23
sg26
Vlib/python3.6/site-packages/cctbx/command_line/euclidean_model_matching.py
p2036
sbsg0
(g17
g2
Ntp2037
Rp2038
(dp2039
g21
g23
sg26
Vbin/cctbx.version
p2040
sbg0
(g17
g2
Ntp2041
Rp2042
(dp2043
g21
g23
sg26
Vlib/python3.6/site-packages/cctbx/command_line/version.py
p2044
sbsg0
(g17
g2
Ntp2045
Rp2046
(dp2047
g21
g23
sg26
Vbin/cctbx.web.install
p2048
sbg0
(g17
g2
Ntp2049
Rp2050
(dp2051
g21
g23
sg26
Vlib/python3.6/site-packages/cctbx/command_line/web.install.csh
p2052
sbsg0
(g17
g2
Ntp2053
Rp2054
(dp2055
g21
g23
sg26
Vbin/cctbx_regression.test_nightly
p2056
sbg0
(g17
g2
Ntp2057
Rp2058
(dp2059
g21
g23
sg26
Vlib/python3.6/site-packages/cctbx/command_line/cctbx_test_nightly.py
p2060
sbsg0
(g17
g2
Ntp2061
Rp2062
(dp2063
g21
g23
sg26
Vbin/cctbx.xray_structure.show
p2064
sbg0
(g17
g2
Ntp2065
Rp2066
(dp2067
g21
g23
sg26
Vlib/python3.6/site-packages/cctbx/command_line/xray_structure.show.py
p2068
sbsg0
(g17
g2
Ntp2069
Rp2070
(dp2071
g21
g23
sg26
Vbin/samosa.scale
p2072
sbg0
(g17
g2
Ntp2073
Rp2074
(dp2075
g21
g23
sg26
Vlib/python3.6/site-packages/cctbx/command_line/samosa_scale.py
p2076
sbsg0
(g17
g2
Ntp2077
Rp2078
(dp2079
g21
g23
sg26
Vbin/cctbx.diffuse
p2080
sbg0
(g17
g2
Ntp2081
Rp2082
(dp2083
g21
g23
sg26
Vlib/python3.6/site-packages/cctbx/command_line/diffuse.py
p2084
sbsg0
(g17
g2
Ntp2085
Rp2086
(dp2087
g21
g23
sg26
Vbin/cctbx.cod_select_and_pickle
p2088
sbg0
(g17
g2
Ntp2089
Rp2090
(dp2091
g21
g23
sg26
Vlib/python3.6/site-packages/cctbx/command_line/cod_select_and_pickle.py
p2092
sbsg0
(g17
g2
Ntp2093
Rp2094
(dp2095
g21
g23
sg26
Vbin/samosa.join
p2096
sbg0
(g17
g2
Ntp2097
Rp2098
(dp2099
g21
g23
sg26
Vlib/python3.6/site-packages/cctbx/command_line/samosa_join.py
p2100
sbsg0
(g17
g2
Ntp2101
Rp2102
(dp2103
g21
g23
sg26
Vbin/cctbx.eltbx.show_fp_fdp
p2104
sbg0
(g17
g2
Ntp2105
Rp2106
(dp2107
g21
g23
sg26
Vlib/python3.6/site-packages/cctbx/command_line/eltbx.show_fp_fdp.py
p2108
sbsg0
(g17
g2
Ntp2109
Rp2110
(dp2111
g21
g23
sg26
Vbin/cctbx.structure_factor_timings
p2112
sbg0
(g17
g2
Ntp2113
Rp2114
(dp2115
g21
g23
sg26
Vlib/python3.6/site-packages/cctbx/command_line/structure_factor_timings.py
p2116
sbsg0
(g17
g2
Ntp2117
Rp2118
(dp2119
g21
g23
sg26
Vbin/smtbx.masks
p2120
sbg0
(g17
g2
Ntp2121
Rp2122
(dp2123
g21
g23
sg26
Vlib/python3.6/site-packages/smtbx/command_line/masks.py
p2124
sbsg0
(g17
g2
Ntp2125
Rp2126
(dp2127
g21
g23
sg26
Vbin/smtbx.benchmark_refinement
p2128
sbg0
(g17
g2
Ntp2129
Rp2130
(dp2131
g21
g23
sg26
Vlib/python3.6/site-packages/smtbx/command_line/benchmark_refinement.py
p2132
sbsg0
(g17
g2
Ntp2133
Rp2134
(dp2135
g21
g23
sg26
Vbin/smtbx.refine
p2136
sbg0
(g17
g2
Ntp2137
Rp2138
(dp2139
g21
g23
sg26
Vlib/python3.6/site-packages/smtbx/command_line/refine.py
p2140
sbsg0
(g17
g2
Ntp2141
Rp2142
(dp2143
g21
g23
sg26
Vbin/smtbx.anom_refine
p2144
sbg0
(g17
g2
Ntp2145
Rp2146
(dp2147
g21
g23
sg26
Vlib/python3.6/site-packages/smtbx/command_line/anom_refine.py
p2148
sbsg0
(g17
g2
Ntp2149
Rp2150
(dp2151
g21
g23
sg26
Vbin/smtbx.absolute_structure
p2152
sbg0
(g17
g2
Ntp2153
Rp2154
(dp2155
g21
g23
sg26
Vlib/python3.6/site-packages/smtbx/command_line/absolute_structure.py
p2156
sbsg0
(g17
g2
Ntp2157
Rp2158
(dp2159
g21
g23
sg26
Vbin/iotbx.pdb.flip_symmetric_amino_acids
p2160
sbg0
(g17
g2
Ntp2161
Rp2162
(dp2163
g21
g23
sg26
Vlib/python3.6/site-packages/iotbx/command_line/flip_symmetric_amino_acids.py
p2164
sbsg0
(g17
g2
Ntp2165
Rp2166
(dp2167
g21
g23
sg26
Vbin/iotbx.r_free_flags_accumulation
p2168
sbg0
(g17
g2
Ntp2169
Rp2170
(dp2171
g21
g23
sg26
Vlib/python3.6/site-packages/iotbx/command_line/r_free_flags_accumulation.py
p2172
sbsg0
(g17
g2
Ntp2173
Rp2174
(dp2175
g21
g23
sg26
Vbin/iotbx.poscar_as_xray_structure
p2176
sbg0
(g17
g2
Ntp2177
Rp2178
(dp2179
g21
g23
sg26
Vlib/python3.6/site-packages/iotbx/command_line/poscar_as_xray_structure.py
p2180
sbsg0
(g17
g2
Ntp2181
Rp2182
(dp2183
g21
g23
sg26
Vbin/iotbx.reflection_file_converter
p2184
sbg0
(g17
g2
Ntp2185
Rp2186
(dp2187
g21
g23
sg26
Vlib/python3.6/site-packages/iotbx/command_line/reflection_file_converter.py
p2188
sbsg0
(g17
g2
Ntp2189
Rp2190
(dp2191
g21
g23
sg26
Vbin/iotbx.crystal_symmetry_from_any
p2192
sbg0
(g17
g2
Ntp2193
Rp2194
(dp2195
g21
g23
sg26
Vlib/python3.6/site-packages/iotbx/command_line/crystal_symmetry_from_any.py
p2196
sbsg0
(g17
g2
Ntp2197
Rp2198
(dp2199
g21
g23
sg26
Vbin/iotbx.pdb.split_models
p2200
sbg0
(g17
g2
Ntp2201
Rp2202
(dp2203
g21
g23
sg26
Vlib/python3.6/site-packages/iotbx/command_line/pdb_split_models.py
p2204
sbsg0
(g17
g2
Ntp2205
Rp2206
(dp2207
g21
g23
sg26
Vbin/iotbx.cns.transfer_crystal_symmetry
p2208
sbg0
(g17
g2
Ntp2209
Rp2210
(dp2211
g21
g23
sg26
Vlib/python3.6/site-packages/iotbx/command_line/cns.transfer_crystal_symmetry.py
p2212
sbsg0
(g17
g2
Ntp2213
Rp2214
(dp2215
g21
g23
sg26
Vbin/iotbx.reflection_file_editor
p2216
sbg0
(g17
g2
Ntp2217
Rp2218
(dp2219
g21
g23
sg26
Vlib/python3.6/site-packages/iotbx/command_line/reflection_file_editor.py
p2220
sbsg0
(g17
g2
Ntp2221
Rp2222
(dp2223
g21
g23
sg26
Vbin/iotbx.r_free_flags_completion_simple
p2224
sbg0
(g17
g2
Ntp2225
Rp2226
(dp2227
g21
g23
sg26
Vlib/python3.6/site-packages/iotbx/command_line/r_free_flags_completion_simple.py
p2228
sbsg0
(g17
g2
Ntp2229
Rp2230
(dp2231
g21
g23
sg26
Vbin/iotbx.mtz.dump
p2232
sbg0
(g17
g2
Ntp2233
Rp2234
(dp2235
g21
g23
sg26
Vlib/python3.6/site-packages/iotbx/command_line/mtz.dump.py
p2236
sbsg0
(g17
g2
Ntp2237
Rp2238
(dp2239
g21
g23
sg26
Vbin/iotbx.french_wilson
p2240
sbg0
(g17
g2
Ntp2241
Rp2242
(dp2243
g21
g23
sg26
Vlib/python3.6/site-packages/iotbx/command_line/french_wilson.py
p2244
sbsg0
(g17
g2
Ntp2245
Rp2246
(dp2247
g21
g23
sg26
Vbin/iotbx.phil
p2248
sbg0
(g17
g2
Ntp2249
Rp2250
(dp2251
g21
g23
sg26
Vlib/python3.6/site-packages/iotbx/command_line/phil.py
p2252
sbsg0
(g17
g2
Ntp2253
Rp2254
(dp2255
g21
g23
sg26
Vbin/iotbx.cns.sdb_reader
p2256
sbg0
(g17
g2
Ntp2257
Rp2258
(dp2259
g21
g23
sg26
Vlib/python3.6/site-packages/iotbx/command_line/cns.sdb_reader.py
p2260
sbsg0
(g17
g2
Ntp2261
Rp2262
(dp2263
g21
g23
sg26
Vbin/iotbx.file_reader
p2264
sbg0
(g17
g2
Ntp2265
Rp2266
(dp2267
g21
g23
sg26
Vlib/python3.6/site-packages/iotbx/command_line/file_reader.py
p2268
sbsg0
(g17
g2
Ntp2269
Rp2270
(dp2271
g21
g23
sg26
Vbin/iotbx.show_distances
p2272
sbg0
(g17
g2
Ntp2273
Rp2274
(dp2275
g21
g23
sg26
Vlib/python3.6/site-packages/iotbx/command_line/show_distances.py
p2276
sbsg0
(g17
g2
Ntp2277
Rp2278
(dp2279
g21
g23
sg26
Vbin/labelit.png
p2280
sbg0
(g17
g2
Ntp2281
Rp2282
(dp2283
g21
g23
sg26
Vlib/python3.6/site-packages/iotbx/command_line/detector_image_as_png.py
p2284
sbsg0
(g17
g2
Ntp2285
Rp2286
(dp2287
g21
g23
sg26
Vbin/iotbx.pdb_labels_comparison
p2288
sbg0
(g17
g2
Ntp2289
Rp2290
(dp2291
g21
g23
sg26
Vlib/python3.6/site-packages/iotbx/command_line/pdb_labels_comparison.py
p2292
sbsg0
(g17
g2
Ntp2293
Rp2294
(dp2295
g21
g23
sg26
Vbin/iotbx.cif.as_miller_arrays
p2296
sbg0
(g17
g2
Ntp2297
Rp2298
(dp2299
g21
g23
sg26
Vlib/python3.6/site-packages/iotbx/command_line/cif.as_miller_arrays.py
p2300
sbsg0
(g17
g2
Ntp2301
Rp2302
(dp2303
g21
g23
sg26
Vbin/iotbx.pdb.insert_scale_records
p2304
sbg0
(g17
g2
Ntp2305
Rp2306
(dp2307
g21
g23
sg26
Vlib/python3.6/site-packages/iotbx/command_line/pdb.insert_scale_records.py
p2308
sbsg0
(g17
g2
Ntp2309
Rp2310
(dp2311
g21
g23
sg26
Vbin/iotbx.distance_least_squares
p2312
sbg0
(g17
g2
Ntp2313
Rp2314
(dp2315
g21
g23
sg26
Vlib/python3.6/site-packages/iotbx/command_line/distance_least_squares.py
p2316
sbsg0
(g17
g2
Ntp2317
Rp2318
(dp2319
g21
g23
sg26
Vbin/iotbx.pdb.superpose_centers_of_mass
p2320
sbg0
(g17
g2
Ntp2321
Rp2322
(dp2323
g21
g23
sg26
Vlib/python3.6/site-packages/iotbx/command_line/pdb.superpose_centers_of_mass.py
p2324
sbsg0
(g17
g2
Ntp2325
Rp2326
(dp2327
g21
g23
sg26
Vbin/iotbx.build_phil_cache
p2328
sbg0
(g17
g2
Ntp2329
Rp2330
(dp2331
g21
g23
sg26
Vlib/python3.6/site-packages/iotbx/command_line/build_phil_cache.py
p2332
sbsg0
(g17
g2
Ntp2333
Rp2334
(dp2335
g21
g23
sg26
Vbin/iotbx.shelx.as_xray_structure
p2336
sbg0
(g17
g2
Ntp2337
Rp2338
(dp2339
g21
g23
sg26
Vlib/python3.6/site-packages/iotbx/command_line/shelx.as_xray_structure.py
p2340
sbsg0
(g17
g2
Ntp2341
Rp2342
(dp2343
g21
g23
sg26
Vbin/iotbx.symmetry_search
p2344
sbg0
(g17
g2
Ntp2345
Rp2346
(dp2347
g21
g23
sg26
Vlib/python3.6/site-packages/iotbx/command_line/symmetry_search.py
p2348
sbsg0
(g17
g2
Ntp2349
Rp2350
(dp2351
g21
g23
sg26
Vbin/iotbx.cif_as_pdb
p2352
sbg0
(g17
g2
Ntp2353
Rp2354
(dp2355
g21
g23
sg26
Vlib/python3.6/site-packages/iotbx/command_line/cif_as_pdb.py
p2356
sbsg0
(g17
g2
Ntp2357
Rp2358
(dp2359
g21
g23
sg26
Vbin/iotbx.xplor.map.show_summary
p2360
sbg0
(g17
g2
Ntp2361
Rp2362
(dp2363
g21
g23
sg26
Vlib/python3.6/site-packages/iotbx/command_line/xplor.map.show_summary.py
p2364
sbsg0
(g17
g2
Ntp2365
Rp2366
(dp2367
g21
g23
sg26
Vbin/iotbx.emma
p2368
sbg0
(g17
g2
Ntp2369
Rp2370
(dp2371
g21
g23
sg26
Vlib/python3.6/site-packages/iotbx/command_line/emma.py
p2372
sbsg0
(g17
g2
Ntp2373
Rp2374
(dp2375
g21
g23
sg26
Vbin/iotbx.split_data_cif
p2376
sbg0
(g17
g2
Ntp2377
Rp2378
(dp2379
g21
g23
sg26
Vlib/python3.6/site-packages/iotbx/command_line/split_data_cif.py
p2380
sbsg0
(g17
g2
Ntp2381
Rp2382
(dp2383
g21
g23
sg26
Vbin/iotbx.blast_pdb
p2384
sbg0
(g17
g2
Ntp2385
Rp2386
(dp2387
g21
g23
sg26
Vlib/python3.6/site-packages/iotbx/command_line/blast_pdb.py
p2388
sbsg0
(g17
g2
Ntp2389
Rp2390
(dp2391
g21
g23
sg26
Vbin/iotbx.pdb.link_as_geometry_restraints_edits
p2392
sbg0
(g17
g2
Ntp2393
Rp2394
(dp2395
g21
g23
sg26
Vlib/python3.6/site-packages/iotbx/command_line/pdb.link_as_geometry_restraints_edits.py
p2396
sbsg0
(g17
g2
Ntp2397
Rp2398
(dp2399
g21
g23
sg26
Vbin/iotbx.cbf_read
p2400
sbg0
(g17
g2
Ntp2401
Rp2402
(dp2403
g21
g23
sg26
Vlib/python3.6/site-packages/iotbx/command_line/cbf_read.py
p2404
sbsg0
(g17
g2
Ntp2405
Rp2406
(dp2407
g21
g23
sg26
Vbin/iotbx.shelx.dump_as_python
p2408
sbg0
(g17
g2
Ntp2409
Rp2410
(dp2411
g21
g23
sg26
Vlib/python3.6/site-packages/iotbx/command_line/shelx.dump_as_python.py
p2412
sbsg0
(g17
g2
Ntp2413
Rp2414
(dp2415
g21
g23
sg26
Vbin/iotbx.cns.reflection_reader
p2416
sbg0
(g17
g2
Ntp2417
Rp2418
(dp2419
g21
g23
sg26
Vlib/python3.6/site-packages/iotbx/command_line/cns.reflection_reader.py
p2420
sbsg0
(g17
g2
Ntp2421
Rp2422
(dp2423
g21
g23
sg26
Vbin/iotbx.pdb.box_around_molecule
p2424
sbg0
(g17
g2
Ntp2425
Rp2426
(dp2427
g21
g23
sg26
Vlib/python3.6/site-packages/iotbx/command_line/pdb.box_around_molecule.py
p2428
sbsg0
(g17
g2
Ntp2429
Rp2430
(dp2431
g21
g23
sg26
Vbin/iotbx.cif.as_xray_structure
p2432
sbg0
(g17
g2
Ntp2433
Rp2434
(dp2435
g21
g23
sg26
Vlib/python3.6/site-packages/iotbx/command_line/cif.as_xray_structure.py
p2436
sbsg0
(g17
g2
Ntp2437
Rp2438
(dp2439
g21
g23
sg26
Vbin/iotbx.get_pubmed_citation
p2440
sbg0
(g17
g2
Ntp2441
Rp2442
(dp2443
g21
g23
sg26
Vlib/python3.6/site-packages/iotbx/command_line/get_pubmed_citation.py
p2444
sbsg0
(g17
g2
Ntp2445
Rp2446
(dp2447
g21
g23
sg26
Vbin/iotbx.simple_map_coefficients
p2448
sbg0
(g17
g2
Ntp2449
Rp2450
(dp2451
g21
g23
sg26
Vlib/python3.6/site-packages/iotbx/command_line/simple_map_coefficients.py
p2452
sbsg0
(g17
g2
Ntp2453
Rp2454
(dp2455
g21
g23
sg26
Vbin/cctbx.patterson_map
p2456
sbg0
(g17
g2
Ntp2457
Rp2458
(dp2459
g21
g23
sg26
Vlib/python3.6/site-packages/iotbx/command_line/patterson_map.py
p2460
sbsg0
(g17
g2
Ntp2461
Rp2462
(dp2463
g21
g23
sg26
Vbin/iotbx.r_free_flags_as_cns
p2464
sbg0
(g17
g2
Ntp2465
Rp2466
(dp2467
g21
g23
sg26
Vlib/python3.6/site-packages/iotbx/command_line/r_free_flags_as_cns.py
p2468
sbsg0
(g17
g2
Ntp2469
Rp2470
(dp2471
g21
g23
sg26
Vbin/iotbx.pdb.show_connectivity
p2472
sbg0
(g17
g2
Ntp2473
Rp2474
(dp2475
g21
g23
sg26
Vlib/python3.6/site-packages/iotbx/command_line/pdb_show_connectivity.py
p2476
sbsg0
(g17
g2
Ntp2477
Rp2478
(dp2479
g21
g23
sg26
Vbin/iotbx.export_scalepack_unmerged
p2480
sbg0
(g17
g2
Ntp2481
Rp2482
(dp2483
g21
g23
sg26
Vlib/python3.6/site-packages/iotbx/command_line/export_scalepack_unmerged.py
p2484
sbsg0
(g17
g2
Ntp2485
Rp2486
(dp2487
g21
g23
sg26
Vbin/cctbx.isomorphous_difference_patterson
p2488
sbg0
(g17
g2
Ntp2489
Rp2490
(dp2491
g21
g23
sg26
Vlib/python3.6/site-packages/iotbx/command_line/isomorphous_difference_patterson.py
p2492
sbsg0
(g17
g2
Ntp2493
Rp2494
(dp2495
g21
g23
sg26
Vbin/iotbx.lattice_symmetry
p2496
sbg0
(g17
g2
Ntp2497
Rp2498
(dp2499
g21
g23
sg26
Vlib/python3.6/site-packages/iotbx/command_line/lattice_symmetry.py
p2500
sbsg0
(g17
g2
Ntp2501
Rp2502
(dp2503
g21
g23
sg26
Vbin/iotbx.pdb.superpose_atoms_by_name
p2504
sbg0
(g17
g2
Ntp2505
Rp2506
(dp2507
g21
g23
sg26
Vlib/python3.6/site-packages/iotbx/command_line/pdb.superpose_atoms_by_name.py
p2508
sbsg0
(g17
g2
Ntp2509
Rp2510
(dp2511
g21
g23
sg26
Vbin/iotbx.pdb.get_citation
p2512
sbg0
(g17
g2
Ntp2513
Rp2514
(dp2515
g21
g23
sg26
Vlib/python3.6/site-packages/iotbx/command_line/pdb_get_citation.py
p2516
sbsg0
(g17
g2
Ntp2517
Rp2518
(dp2519
g21
g23
sg26
Vbin/iotbx.pdb_labels_diff
p2520
sbg0
(g17
g2
Ntp2521
Rp2522
(dp2523
g21
g23
sg26
Vlib/python3.6/site-packages/iotbx/command_line/pdb_labels_diff.py
p2524
sbsg0
(g17
g2
Ntp2525
Rp2526
(dp2527
g21
g23
sg26
Vbin/iotbx.pdb.as_xray_structure
p2528
sbg0
(g17
g2
Ntp2529
Rp2530
(dp2531
g21
g23
sg26
Vlib/python3.6/site-packages/iotbx/command_line/pdb.as_xray_structure.py
p2532
sbsg0
(g17
g2
Ntp2533
Rp2534
(dp2535
g21
g23
sg26
Vbin/iotbx.pdb.sort_atoms
p2536
sbg0
(g17
g2
Ntp2537
Rp2538
(dp2539
g21
g23
sg26
Vlib/python3.6/site-packages/iotbx/command_line/sort_atoms.py
p2540
sbsg0
(g17
g2
Ntp2541
Rp2542
(dp2543
g21
g23
sg26
Vbin/iotbx.dtrek.to_cns
p2544
sbg0
(g17
g2
Ntp2545
Rp2546
(dp2547
g21
g23
sg26
Vlib/python3.6/site-packages/iotbx/command_line/dtrek.to_cns.py
p2548
sbsg0
(g17
g2
Ntp2549
Rp2550
(dp2551
g21
g23
sg26
Vbin/iotbx.merging_statistics
p2552
sbg0
(g17
g2
Ntp2553
Rp2554
(dp2555
g21
g23
sg26
Vlib/python3.6/site-packages/iotbx/command_line/merging_statistics.py
p2556
sbsg0
(g17
g2
Ntp2557
Rp2558
(dp2559
g21
g23
sg26
Vbin/iotbx.shelx.as_cif
p2560
sbg0
(g17
g2
Ntp2561
Rp2562
(dp2563
g21
g23
sg26
Vlib/python3.6/site-packages/iotbx/command_line/shelx.as_cif.py
p2564
sbsg0
(g17
g2
Ntp2565
Rp2566
(dp2567
g21
g23
sg26
Vbin/iotbx.dano_as_amplitudes
p2568
sbg0
(g17
g2
Ntp2569
Rp2570
(dp2571
g21
g23
sg26
Vlib/python3.6/site-packages/iotbx/command_line/dano_as_amplitudes.py
p2572
sbsg0
(g17
g2
Ntp2573
Rp2574
(dp2575
g21
g23
sg26
Vbin/iotbx.pdb_remediator
p2576
sbg0
(g17
g2
Ntp2577
Rp2578
(dp2579
g21
g23
sg26
Vlib/python3.6/site-packages/iotbx/command_line/pdb_remediator.py
p2580
sbsg0
(g17
g2
Ntp2581
Rp2582
(dp2583
g21
g23
sg26
Vbin/cctbx.show_systematic_absences
p2584
sbg0
(g17
g2
Ntp2585
Rp2586
(dp2587
g21
g23
sg26
Vlib/python3.6/site-packages/iotbx/command_line/show_systematic_absences.py
p2588
sbsg0
(g17
g2
Ntp2589
Rp2590
(dp2591
g21
g23
sg26
Vbin/iotbx.pdb.add_conformations
p2592
sbg0
(g17
g2
Ntp2593
Rp2594
(dp2595
g21
g23
sg26
Vlib/python3.6/site-packages/iotbx/command_line/pdb_add_conformations.py
p2596
sbsg0
(g17
g2
Ntp2597
Rp2598
(dp2599
g21
g23
sg26
Vbin/iotbx.cif.validate
p2600
sbg0
(g17
g2
Ntp2601
Rp2602
(dp2603
g21
g23
sg26
Vlib/python3.6/site-packages/iotbx/command_line/cif.validate.py
p2604
sbsg0
(g17
g2
Ntp2605
Rp2606
(dp2607
g21
g23
sg26
Vbin/iotbx.reflection_file_reader
p2608
sbg0
(g17
g2
Ntp2609
Rp2610
(dp2611
g21
g23
sg26
Vlib/python3.6/site-packages/iotbx/command_line/reflection_file_reader.py
p2612
sbsg0
(g17
g2
Ntp2613
Rp2614
(dp2615
g21
g23
sg26
Vbin/iotbx.pdb.print_sequence
p2616
sbg0
(g17
g2
Ntp2617
Rp2618
(dp2619
g21
g23
sg26
Vlib/python3.6/site-packages/iotbx/command_line/pdb.print_sequence.py
p2620
sbsg0
(g17
g2
Ntp2621
Rp2622
(dp2623
g21
g23
sg26
Vbin/iotbx.pdb_as_fasta
p2624
sbg0
(g17
g2
Ntp2625
Rp2626
(dp2627
g21
g23
sg26
Vlib/python3.6/site-packages/iotbx/command_line/pdb_as_fasta.py
p2628
sbsg0
(g17
g2
Ntp2629
Rp2630
(dp2631
g21
g23
sg26
Vbin/iotbx.pdb.join_fragment_files
p2632
sbg0
(g17
g2
Ntp2633
Rp2634
(dp2635
g21
g23
sg26
Vlib/python3.6/site-packages/iotbx/command_line/pdb.join_fragment_files.py
p2636
sbsg0
(g17
g2
Ntp2637
Rp2638
(dp2639
g21
g23
sg26
Vbin/distl.image_viewer
p2640
sbg0
(g17
g2
Ntp2641
Rp2642
(dp2643
g21
g23
sg26
Vlib/python3.6/site-packages/spotfinder/command_line/image_viewer.py
p2644
sbsg0
(g17
g2
Ntp2645
Rp2646
(dp2647
g21
g23
sg26
Vbin/distl.signal_strength
p2648
sbg0
(g17
g2
Ntp2649
Rp2650
(dp2651
g21
g23
sg26
Vlib/python3.6/site-packages/spotfinder/command_line/signal_strength.py
p2652
sbsg0
(g17
g2
Ntp2653
Rp2654
(dp2655
g21
g23
sg26
Vbin/distl.mp_spotfinder_server_read_file
p2656
sbg0
(g17
g2
Ntp2657
Rp2658
(dp2659
g21
g23
sg26
Vlib/python3.6/site-packages/spotfinder/command_line/mp_spotfinder_server_read_file.py
p2660
sbsg0
(g17
g2
Ntp2661
Rp2662
(dp2663
g21
g23
sg26
Vbin/distl.find_active_area
p2664
sbg0
(g17
g2
Ntp2665
Rp2666
(dp2667
g21
g23
sg26
Vlib/python3.6/site-packages/spotfinder/command_line/find_active_area.py
p2668
sbsg0
(g17
g2
Ntp2669
Rp2670
(dp2671
g21
g23
sg26
Vbin/distl.thin_client
p2672
sbg0
(g17
g2
Ntp2673
Rp2674
(dp2675
g21
g23
sg26
Vlib/python3.6/site-packages/spotfinder/command_line/thin_client.py
p2676
sbsg0
(g17
g2
Ntp2677
Rp2678
(dp2679
g21
g23
sg26
Vbin/distl.sweep_strength
p2680
sbg0
(g17
g2
Ntp2681
Rp2682
(dp2683
g21
g23
sg26
Vlib/python3.6/site-packages/spotfinder/command_line/sweep_strength.py
p2684
sbsg0
(g17
g2
Ntp2685
Rp2686
(dp2687
g21
g23
sg26
Vbin/rstbx.simage.explore_completeness
p2688
sbg0
(g17
g2
Ntp2689
Rp2690
(dp2691
g21
g23
sg26
Vlib/python3.6/site-packages/rstbx/command_line/simage.explore_completeness.py
p2692
sbsg0
(g17
g2
Ntp2693
Rp2694
(dp2695
g21
g23
sg26
Vbin/cctbx.image_viewer
p2696
sbg0
(g17
g2
Ntp2697
Rp2698
(dp2699
g21
g23
sg26
Vlib/python3.6/site-packages/rstbx/command_line/slip_viewer.py
p2700
sbsg0
(g17
g2
Ntp2701
Rp2702
(dp2703
g21
g23
sg26
Vbin/rstbx.simage.wx_display
p2704
sbg0
(g17
g2
Ntp2705
Rp2706
(dp2707
g21
g23
sg26
Vlib/python3.6/site-packages/rstbx/command_line/simage.wx_display.py
p2708
sbsg0
(g17
g2
Ntp2709
Rp2710
(dp2711
g21
g23
sg26
Vbin/rstbx.index
p2712
sbg0
(g17
g2
Ntp2713
Rp2714
(dp2715
g21
g23
sg26
Vlib/python3.6/site-packages/rstbx/command_line/index.py
p2716
sbsg0
(g17
g2
Ntp2717
Rp2718
(dp2719
g21
g23
sg26
Vbin/rstbx.simage.create
p2720
sbg0
(g17
g2
Ntp2721
Rp2722
(dp2723
g21
g23
sg26
Vlib/python3.6/site-packages/rstbx/command_line/simage.create.py
p2724
sbsg0
(g17
g2
Ntp2725
Rp2726
(dp2727
g21
g23
sg26
Vbin/rstbx.simage.solver
p2728
sbg0
(g17
g2
Ntp2729
Rp2730
(dp2731
g21
g23
sg26
Vlib/python3.6/site-packages/rstbx/command_line/simage.solver.py
p2732
sbsg0
(g17
g2
Ntp2733
Rp2734
(dp2735
g21
g23
sg26
Vbin/molprobity.cbetadev
p2736
sbg0
(g17
g2
Ntp2737
Rp2738
(dp2739
g21
g23
sg26
Vlib/python3.6/site-packages/mmtbx/command_line/cbetadev.py
p2740
sbsg0
(g17
g2
Ntp2741
Rp2742
(dp2743
g21
g23
sg26
Vbin/molprobity.cablam
p2744
sbg0
(g17
g2
Ntp2745
Rp2746
(dp2747
g21
g23
sg26
Vlib/python3.6/site-packages/mmtbx/command_line/cablam.py
p2748
sbsg0
(g17
g2
Ntp2749
Rp2750
(dp2751
g21
g23
sg26
Vbin/mmtbx.apply_ncs_to_ligand
p2752
sbg0
(g17
g2
Ntp2753
Rp2754
(dp2755
g21
g23
sg26
Vlib/python3.6/site-packages/mmtbx/command_line/apply_ncs_to_ligand.py
p2756
sbsg0
(g17
g2
Ntp2757
Rp2758
(dp2759
g21
g23
sg26
Vbin/mmtbx.fix_rama_outliers
p2760
sbg0
(g17
g2
Ntp2761
Rp2762
(dp2763
g21
g23
sg26
Vlib/python3.6/site-packages/mmtbx/command_line/fix_rama_outliers.py
p2764
sbsg0
(g17
g2
Ntp2765
Rp2766
(dp2767
g21
g23
sg26
Vbin/mmtbx.superpose
p2768
sbg0
(g17
g2
Ntp2769
Rp2770
(dp2771
g21
g23
sg26
Vlib/python3.6/site-packages/mmtbx/command_line/superpose.py
p2772
sbsg0
(g17
g2
Ntp2773
Rp2774
(dp2775
g21
g23
sg26
Vbin/mmtbx.model_vs_data
p2776
sbg0
(g17
g2
Ntp2777
Rp2778
(dp2779
g21
g23
sg26
Vlib/python3.6/site-packages/mmtbx/command_line/model_vs_data.py
p2780
sbsg0
(g17
g2
Ntp2781
Rp2782
(dp2783
g21
g23
sg26
Vbin/mmtbx.verify_mon_lib_data
p2784
sbg0
(g17
g2
Ntp2785
Rp2786
(dp2787
g21
g23
sg26
Vlib/python3.6/site-packages/mmtbx/command_line/verify_mon_lib_data.py
p2788
sbsg0
(g17
g2
Ntp2789
Rp2790
(dp2791
g21
g23
sg26
Vbin/mmtbx.strip_model
p2792
sbg0
(g17
g2
Ntp2793
Rp2794
(dp2795
g21
g23
sg26
Vlib/python3.6/site-packages/mmtbx/command_line/strip_model.py
p2796
sbsg0
(g17
g2
Ntp2797
Rp2798
(dp2799
g21
g23
sg26
Vbin/mmtbx.anneal_real_space
p2800
sbg0
(g17
g2
Ntp2801
Rp2802
(dp2803
g21
g23
sg26
Vlib/python3.6/site-packages/mmtbx/command_line/anneal_real_space.py
p2804
sbsg0
(g17
g2
Ntp2805
Rp2806
(dp2807
g21
g23
sg26
Vbin/mmtbx.get_related_ensemble
p2808
sbg0
(g17
g2
Ntp2809
Rp2810
(dp2811
g21
g23
sg26
Vlib/python3.6/site-packages/mmtbx/command_line/get_related_ensemble.py
p2812
sbsg0
(g17
g2
Ntp2813
Rp2814
(dp2815
g21
g23
sg26
Vbin/mmtbx.mon_lib_cif_triage
p2816
sbg0
(g17
g2
Ntp2817
Rp2818
(dp2819
g21
g23
sg26
Vlib/python3.6/site-packages/mmtbx/command_line/mon_lib_cif_triage.py
p2820
sbsg0
(g17
g2
Ntp2821
Rp2822
(dp2823
g21
g23
sg26
Vbin/mmtbx.validate_ions
p2824
sbg0
(g17
g2
Ntp2825
Rp2826
(dp2827
g21
g23
sg26
Vlib/python3.6/site-packages/mmtbx/command_line/validate_ions.py
p2828
sbsg0
(g17
g2
Ntp2829
Rp2830
(dp2831
g21
g23
sg26
Vbin/mmtbx.cdl_lookup
p2832
sbg0
(g17
g2
Ntp2833
Rp2834
(dp2835
g21
g23
sg26
Vlib/python3.6/site-packages/mmtbx/command_line/cdl_lookup.py
p2836
sbsg0
(g17
g2
Ntp2837
Rp2838
(dp2839
g21
g23
sg26
Vbin/mmtbx.validate_ligands
p2840
sbg0
(g17
g2
Ntp2841
Rp2842
(dp2843
g21
g23
sg26
Vlib/python3.6/site-packages/mmtbx/command_line/validate_ligands.py
p2844
sbsg0
(g17
g2
Ntp2845
Rp2846
(dp2847
g21
g23
sg26
Vbin/molprobity.rotalyze
p2848
sbg0
(g17
g2
Ntp2849
Rp2850
(dp2851
g21
g23
sg26
Vlib/python3.6/site-packages/mmtbx/command_line/rotalyze.py
p2852
sbsg0
(g17
g2
Ntp2853
Rp2854
(dp2855
g21
g23
sg26
Vbin/mmtbx.show_r_factors_by_shell
p2856
sbg0
(g17
g2
Ntp2857
Rp2858
(dp2859
g21
g23
sg26
Vlib/python3.6/site-packages/mmtbx/command_line/show_r_factors_by_shell.py
p2860
sbsg0
(g17
g2
Ntp2861
Rp2862
(dp2863
g21
g23
sg26
Vbin/mmtbx.matthews
p2864
sbg0
(g17
g2
Ntp2865
Rp2866
(dp2867
g21
g23
sg26
Vlib/python3.6/site-packages/mmtbx/command_line/matthews.py
p2868
sbsg0
(g17
g2
Ntp2869
Rp2870
(dp2871
g21
g23
sg26
Vbin/mmtbx.compare_ligands
p2872
sbg0
(g17
g2
Ntp2873
Rp2874
(dp2875
g21
g23
sg26
Vlib/python3.6/site-packages/mmtbx/command_line/compare_ligands.py
p2876
sbsg0
(g17
g2
Ntp2877
Rp2878
(dp2879
g21
g23
sg26
Vbin/mmtbx.validation_summary
p2880
sbg0
(g17
g2
Ntp2881
Rp2882
(dp2883
g21
g23
sg26
Vlib/python3.6/site-packages/mmtbx/command_line/validation_summary.py
p2884
sbsg0
(g17
g2
Ntp2885
Rp2886
(dp2887
g21
g23
sg26
Vbin/mmtbx.mp_geo
p2888
sbg0
(g17
g2
Ntp2889
Rp2890
(dp2891
g21
g23
sg26
Vlib/python3.6/site-packages/mmtbx/command_line/mp_geo.py
p2892
sbsg0
(g17
g2
Ntp2893
Rp2894
(dp2895
g21
g23
sg26
Vbin/molprobity.molprobity
p2896
sbg0
(g17
g2
Ntp2897
Rp2898
(dp2899
g21
g23
sg26
Vlib/python3.6/site-packages/mmtbx/command_line/molprobity.py
p2900
sbsg0
(g17
g2
Ntp2901
Rp2902
(dp2903
g21
g23
sg26
Vbin/mmtbx.pdb_view_ad_hoc
p2904
sbg0
(g17
g2
Ntp2905
Rp2906
(dp2907
g21
g23
sg26
Vlib/python3.6/site-packages/mmtbx/command_line/pdb_view_ad_hoc.py
p2908
sbsg0
(g17
g2
Ntp2909
Rp2910
(dp2911
g21
g23
sg26
Vbin/mmtbx.nonbonded_overlaps
p2912
sbg0
(g17
g2
Ntp2913
Rp2914
(dp2915
g21
g23
sg26
Vlib/python3.6/site-packages/mmtbx/command_line/nonbonded_overlaps.py
p2916
sbsg0
(g17
g2
Ntp2917
Rp2918
(dp2919
g21
g23
sg26
Vbin/molprobity.rna_validate
p2920
sbg0
(g17
g2
Ntp2921
Rp2922
(dp2923
g21
g23
sg26
Vlib/python3.6/site-packages/mmtbx/command_line/rna_validate.py
p2924
sbsg0
(g17
g2
Ntp2925
Rp2926
(dp2927
g21
g23
sg26
Vbin/mmtbx.show_suspicious_residues
p2928
sbg0
(g17
g2
Ntp2929
Rp2930
(dp2931
g21
g23
sg26
Vlib/python3.6/site-packages/mmtbx/command_line/show_suspicious_residues.py
p2932
sbsg0
(g17
g2
Ntp2933
Rp2934
(dp2935
g21
g23
sg26
Vbin/mmtbx.nqh_minimize
p2936
sbg0
(g17
g2
Ntp2937
Rp2938
(dp2939
g21
g23
sg26
Vlib/python3.6/site-packages/mmtbx/command_line/nqh_minimize.py
p2940
sbsg0
(g17
g2
Ntp2941
Rp2942
(dp2943
g21
g23
sg26
Vbin/molprobity.clashscore
p2944
sbg0
(g17
g2
Ntp2945
Rp2946
(dp2947
g21
g23
sg26
Vlib/python3.6/site-packages/mmtbx/command_line/clashscore.py
p2948
sbsg0
(g17
g2
Ntp2949
Rp2950
(dp2951
g21
g23
sg26
Vbin/mmtbx.water_screen
p2952
sbg0
(g17
g2
Ntp2953
Rp2954
(dp2955
g21
g23
sg26
Vlib/python3.6/site-packages/mmtbx/command_line/water_screen.py
p2956
sbsg0
(g17
g2
Ntp2957
Rp2958
(dp2959
g21
g23
sg26
Vbin/mmtbx.xtriage
p2960
sbg0
(g17
g2
Ntp2961
Rp2962
(dp2963
g21
g23
sg26
Vlib/python3.6/site-packages/mmtbx/command_line/xtriage.py
p2964
sbsg0
(g17
g2
Ntp2965
Rp2966
(dp2967
g21
g23
sg26
Vbin/mmtbx.fix_rotamer_outliers
p2968
sbg0
(g17
g2
Ntp2969
Rp2970
(dp2971
g21
g23
sg26
Vlib/python3.6/site-packages/mmtbx/command_line/fix_rotamer_outliers.py
p2972
sbsg0
(g17
g2
Ntp2973
Rp2974
(dp2975
g21
g23
sg26
Vbin/iotbx.cif_as_mtz
p2976
sbg0
(g17
g2
Ntp2977
Rp2978
(dp2979
g21
g23
sg26
Vlib/python3.6/site-packages/mmtbx/command_line/cif_as_mtz.py
p2980
sbsg0
(g17
g2
Ntp2981
Rp2982
(dp2983
g21
g23
sg26
Vbin/molprobity.kinemage
p2984
sbg0
(g17
g2
Ntp2985
Rp2986
(dp2987
g21
g23
sg26
Vlib/python3.6/site-packages/mmtbx/command_line/kinemage.py
p2988
sbsg0
(g17
g2
Ntp2989
Rp2990
(dp2991
g21
g23
sg26
Vbin/mmtbx.altloc_remediate
p2992
sbg0
(g17
g2
Ntp2993
Rp2994
(dp2995
g21
g23
sg26
Vlib/python3.6/site-packages/mmtbx/command_line/altloc_remediate.py
p2996
sbsg0
(g17
g2
Ntp2997
Rp2998
(dp2999
g21
g23
sg26
Vbin/mmtbx.afitt
p3000
sbg0
(g17
g2
Ntp3001
Rp3002
(dp3003
g21
g23
sg26
Vlib/python3.6/site-packages/mmtbx/command_line/afitt.py
p3004
sbsg0
(g17
g2
Ntp3005
Rp3006
(dp3007
g21
g23
sg26
Vbin/cctbx.development.ntc_validation
p3008
sbg0
(g17
g2
Ntp3009
Rp3010
(dp3011
g21
g23
sg26
Vlib/python3.6/site-packages/mmtbx/command_line/ntc_validation.py
p3012
sbsg0
(g17
g2
Ntp3013
Rp3014
(dp3015
g21
g23
sg26
Vbin/mmtbx.dssp
p3016
sbg0
(g17
g2
Ntp3017
Rp3018
(dp3019
g21
g23
sg26
Vlib/python3.6/site-packages/mmtbx/command_line/dssp.py
p3020
sbsg0
(g17
g2
Ntp3021
Rp3022
(dp3023
g21
g23
sg26
Vbin/mmtbx.fmodel_simple
p3024
sbg0
(g17
g2
Ntp3025
Rp3026
(dp3027
g21
g23
sg26
Vlib/python3.6/site-packages/mmtbx/command_line/fmodel_simple.py
p3028
sbsg0
(g17
g2
Ntp3029
Rp3030
(dp3031
g21
g23
sg26
Vbin/mmtbx.emringer_score
p3032
sbg0
(g17
g2
Ntp3033
Rp3034
(dp3035
g21
g23
sg26
Vlib/python3.6/site-packages/mmtbx/command_line/emringer_score.py
p3036
sbsg0
(g17
g2
Ntp3037
Rp3038
(dp3039
g21
g23
sg26
Vbin/mmtbx.simulate_low_res_data
p3040
sbg0
(g17
g2
Ntp3041
Rp3042
(dp3043
g21
g23
sg26
Vlib/python3.6/site-packages/mmtbx/command_line/simulate_low_res_data.py
p3044
sbsg0
(g17
g2
Ntp3045
Rp3046
(dp3047
g21
g23
sg26
Vbin/mmtbx.partial_omit_map
p3048
sbg0
(g17
g2
Ntp3049
Rp3050
(dp3051
g21
g23
sg26
Vlib/python3.6/site-packages/mmtbx/command_line/partial_omit_map.py
p3052
sbsg0
(g17
g2
Ntp3053
Rp3054
(dp3055
g21
g23
sg26
Vbin/mmtbx.select_best_starting_model
p3056
sbg0
(g17
g2
Ntp3057
Rp3058
(dp3059
g21
g23
sg26
Vlib/python3.6/site-packages/mmtbx/command_line/select_best_starting_model.py
p3060
sbsg0
(g17
g2
Ntp3061
Rp3062
(dp3063
g21
g23
sg26
Vbin/mmtbx.rigid_bond_test
p3064
sbg0
(g17
g2
Ntp3065
Rp3066
(dp3067
g21
g23
sg26
Vlib/python3.6/site-packages/mmtbx/command_line/rigid_bond_test.py
p3068
sbsg0
(g17
g2
Ntp3069
Rp3070
(dp3071
g21
g23
sg26
Vbin/mmtbx.ssm_rmsd_for_chains
p3072
sbg0
(g17
g2
Ntp3073
Rp3074
(dp3075
g21
g23
sg26
Vlib/python3.6/site-packages/mmtbx/command_line/ssm_rmsd_for_chains.py
p3076
sbsg0
(g17
g2
Ntp3077
Rp3078
(dp3079
g21
g23
sg26
Vbin/mmtbx.rebuild_rotarama_cache
p3080
sbg0
(g17
g2
Ntp3081
Rp3082
(dp3083
g21
g23
sg26
Vlib/python3.6/site-packages/mmtbx/command_line/rebuild_rotarama_cache.py
p3084
sbsg0
(g17
g2
Ntp3085
Rp3086
(dp3087
g21
g23
sg26
Vbin/mmtbx.density_modification
p3088
sbg0
(g17
g2
Ntp3089
Rp3090
(dp3091
g21
g23
sg26
Vlib/python3.6/site-packages/mmtbx/command_line/density_modification.py
p3092
sbsg0
(g17
g2
Ntp3093
Rp3094
(dp3095
g21
g23
sg26
Vbin/mmtbx.find_peaks_holes
p3096
sbg0
(g17
g2
Ntp3097
Rp3098
(dp3099
g21
g23
sg26
Vlib/python3.6/site-packages/mmtbx/command_line/find_peaks_holes.py
p3100
sbsg0
(g17
g2
Ntp3101
Rp3102
(dp3103
g21
g23
sg26
Vbin/mmtbx.afitt_fd
p3104
sbg0
(g17
g2
Ntp3105
Rp3106
(dp3107
g21
g23
sg26
Vlib/python3.6/site-packages/mmtbx/command_line/afitt_fd.py
p3108
sbsg0
(g17
g2
Ntp3109
Rp3110
(dp3111
g21
g23
sg26
Vbin/mmtbx.ringer
p3112
sbg0
(g17
g2
Ntp3113
Rp3114
(dp3115
g21
g23
sg26
Vlib/python3.6/site-packages/mmtbx/command_line/ringer.py
p3116
sbsg0
(g17
g2
Ntp3117
Rp3118
(dp3119
g21
g23
sg26
Vbin/mmtbx.ss_idealization
p3120
sbg0
(g17
g2
Ntp3121
Rp3122
(dp3123
g21
g23
sg26
Vlib/python3.6/site-packages/mmtbx/command_line/ss_idealization.py
p3124
sbsg0
(g17
g2
Ntp3125
Rp3126
(dp3127
g21
g23
sg26
Vbin/mmtbx.rama_z
p3128
sbg0
(g17
g2
Ntp3129
Rp3130
(dp3131
g21
g23
sg26
Vlib/python3.6/site-packages/mmtbx/command_line/rama_z.py
p3132
sbsg0
(g17
g2
Ntp3133
Rp3134
(dp3135
g21
g23
sg26
Vbin/mmtbx.development.aev
p3136
sbg0
(g17
g2
Ntp3137
Rp3138
(dp3139
g21
g23
sg26
Vlib/python3.6/site-packages/mmtbx/command_line/development.aev.py
p3140
sbsg0
(g17
g2
Ntp3141
Rp3142
(dp3143
g21
g23
sg26
Vbin/mmtbx.analyze_static_disorder
p3144
sbg0
(g17
g2
Ntp3145
Rp3146
(dp3147
g21
g23
sg26
Vlib/python3.6/site-packages/mmtbx/command_line/analyze_static_disorder.py
p3148
sbsg0
(g17
g2
Ntp3149
Rp3150
(dp3151
g21
g23
sg26
Vbin/iotbx.fetch_pdb
p3152
sbg0
(g17
g2
Ntp3153
Rp3154
(dp3155
g21
g23
sg26
Vlib/python3.6/site-packages/mmtbx/command_line/fetch_pdb.py
p3156
sbsg0
(g17
g2
Ntp3157
Rp3158
(dp3159
g21
g23
sg26
Vbin/mmtbx.monomer_library.comp_as_motif
p3160
sbg0
(g17
g2
Ntp3161
Rp3162
(dp3163
g21
g23
sg26
Vlib/python3.6/site-packages/mmtbx/command_line/monomer_library.comp_as_motif.py
p3164
sbsg0
(g17
g2
Ntp3165
Rp3166
(dp3167
g21
g23
sg26
Vbin/molprobity.ramalyze
p3168
sbg0
(g17
g2
Ntp3169
Rp3170
(dp3171
g21
g23
sg26
Vlib/python3.6/site-packages/mmtbx/command_line/ramalyze.py
p3172
sbsg0
(g17
g2
Ntp3173
Rp3174
(dp3175
g21
g23
sg26
Vbin/molprobity.omegalyze
p3176
sbg0
(g17
g2
Ntp3177
Rp3178
(dp3179
g21
g23
sg26
Vlib/python3.6/site-packages/mmtbx/command_line/omegalyze.py
p3180
sbsg0
(g17
g2
Ntp3181
Rp3182
(dp3183
g21
g23
sg26
Vbin/mmtbx.analyze_peptides
p3184
sbg0
(g17
g2
Ntp3185
Rp3186
(dp3187
g21
g23
sg26
Vlib/python3.6/site-packages/mmtbx/command_line/analyze_peptides.py
p3188
sbsg0
(g17
g2
Ntp3189
Rp3190
(dp3191
g21
g23
sg26
Vbin/mmtbx.prune_model
p3192
sbg0
(g17
g2
Ntp3193
Rp3194
(dp3195
g21
g23
sg26
Vlib/python3.6/site-packages/mmtbx/command_line/prune_model.py
p3196
sbsg0
(g17
g2
Ntp3197
Rp3198
(dp3199
g21
g23
sg26
Vbin/mmtbx.generate_disorder
p3200
sbg0
(g17
g2
Ntp3201
Rp3202
(dp3203
g21
g23
sg26
Vlib/python3.6/site-packages/mmtbx/command_line/generate_disorder.py
p3204
sbsg0
(g17
g2
Ntp3205
Rp3206
(dp3207
g21
g23
sg26
Vbin/mmtbx.estimate_bijvoet_ratio
p3208
sbg0
(g17
g2
Ntp3209
Rp3210
(dp3211
g21
g23
sg26
Vlib/python3.6/site-packages/mmtbx/command_line/estimate_bijvoet_ratio.py
p3212
sbsg0
(g17
g2
Ntp3213
Rp3214
(dp3215
g21
g23
sg26
Vbin/mmtbx.search_pdb_symmetry
p3216
sbg0
(g17
g2
Ntp3217
Rp3218
(dp3219
g21
g23
sg26
Vlib/python3.6/site-packages/mmtbx/command_line/search_pdb_symmetry.py
p3220
sbsg0
(g17
g2
Ntp3221
Rp3222
(dp3223
g21
g23
sg26
Vbin/mmtbx.extend_sidechains
p3224
sbg0
(g17
g2
Ntp3225
Rp3226
(dp3227
g21
g23
sg26
Vlib/python3.6/site-packages/mmtbx/command_line/extend_sidechains.py
p3228
sbsg0
(g17
g2
Ntp3229
Rp3230
(dp3231
g21
g23
sg26
Vbin/mmtbx.simple_build_alt_confs
p3232
sbg0
(g17
g2
Ntp3233
Rp3234
(dp3235
g21
g23
sg26
Vlib/python3.6/site-packages/mmtbx/command_line/build_alt_confs_simple.py
p3236
sbsg0
(g17
g2
Ntp3237
Rp3238
(dp3239
g21
g23
sg26
Vbin/mmtbx.super
p3240
sbg0
(g17
g2
Ntp3241
Rp3242
(dp3243
g21
g23
sg26
Vlib/python3.6/site-packages/mmtbx/command_line/super.py
p3244
sbsg0
(g17
g2
Ntp3245
Rp3246
(dp3247
g21
g23
sg26
Vbin/mmtbx.flipbase
p3248
sbg0
(g17
g2
Ntp3249
Rp3250
(dp3251
g21
g23
sg26
Vlib/python3.6/site-packages/mmtbx/command_line/flipbase.py
p3252
sbsg0
(g17
g2
Ntp3253
Rp3254
(dp3255
g21
g23
sg26
Vbin/mmtbx.build_alternate_conformations
p3256
sbg0
(g17
g2
Ntp3257
Rp3258
(dp3259
g21
g23
sg26
Vlib/python3.6/site-packages/mmtbx/command_line/build_alternate_conformations.py
p3260
sbsg0
(g17
g2
Ntp3261
Rp3262
(dp3263
g21
g23
sg26
Vbin/mmtbx.prepare_pdb_deposition
p3264
sbg0
(g17
g2
Ntp3265
Rp3266
(dp3267
g21
g23
sg26
Vlib/python3.6/site-packages/mmtbx/command_line/prepare_pdb_deposition.py
p3268
sbsg0
(g17
g2
Ntp3269
Rp3270
(dp3271
g21
g23
sg26
Vbin/mmtbx.compute_map_coefficients
p3272
sbg0
(g17
g2
Ntp3273
Rp3274
(dp3275
g21
g23
sg26
Vlib/python3.6/site-packages/mmtbx/command_line/compute_map_coefficients.py
p3276
sbsg0
(g17
g2
Ntp3277
Rp3278
(dp3279
g21
g23
sg26
Vbin/mmtbx.fft
p3280
sbg0
(g17
g2
Ntp3281
Rp3282
(dp3283
g21
g23
sg26
Vlib/python3.6/site-packages/mmtbx/command_line/mtz2map.py
p3284
sbsg0
(g17
g2
Ntp3285
Rp3286
(dp3287
g21
g23
sg26
Vbin/mmtbx.find_residue_in_pdb
p3288
sbg0
(g17
g2
Ntp3289
Rp3290
(dp3291
g21
g23
sg26
Vlib/python3.6/site-packages/mmtbx/command_line/find_residue_in_pdb.py
p3292
sbsg0
(g17
g2
Ntp3293
Rp3294
(dp3295
g21
g23
sg26
Vbin/mmtbx.refine_anomalous_substructure
p3296
sbg0
(g17
g2
Ntp3297
Rp3298
(dp3299
g21
g23
sg26
Vlib/python3.6/site-packages/mmtbx/command_line/refine_anomalous_substructure.py
p3300
sbsg0
(g17
g2
Ntp3301
Rp3302
(dp3303
g21
g23
sg26
Vbin/mmtbx.distance_difference
p3304
sbg0
(g17
g2
Ntp3305
Rp3306
(dp3307
g21
g23
sg26
Vlib/python3.6/site-packages/mmtbx/command_line/distance_difference.py
p3308
sbsg0
(g17
g2
Ntp3309
Rp3310
(dp3311
g21
g23
sg26
Vbin/mmtbx.massage_data
p3312
sbg0
(g17
g2
Ntp3313
Rp3314
(dp3315
g21
g23
sg26
Vlib/python3.6/site-packages/mmtbx/command_line/massage_data.py
p3316
sbsg0
(g17
g2
Ntp3317
Rp3318
(dp3319
g21
g23
sg26
Vbin/mmtbx.validate_waters
p3320
sbg0
(g17
g2
Ntp3321
Rp3322
(dp3323
g21
g23
sg26
Vlib/python3.6/site-packages/mmtbx/command_line/validate_waters.py
p3324
sbsg0
(g17
g2
Ntp3325
Rp3326
(dp3327
g21
g23
sg26
Vbin/cctbx_website.extract_script_from_html_cctbx_doc
p3328
sbg0
(g17
g2
Ntp3329
Rp3330
(dp3331
g21
g23
sg26
Vlib/python3.6/site-packages/cctbx_website/command_line/extract_script_from_html_cctbx_doc.py
p3332
sbsg0
(g17
g2
Ntp3333
Rp3334
(dp3335
g21
g23
sg26
Vbin/gltbx.try_imports
p3336
sbg0
(g17
g2
Ntp3337
Rp3338
(dp3339
g21
g23
sg26
Vlib/python3.6/site-packages/gltbx/command_line/try_imports.py
p3340
sbsg0
(g17
g2
Ntp3341
Rp3342
(dp3343
g21
g23
sg26
Vbin/wxtbx.show_file_info
p3344
sbg0
(g17
g2
Ntp3345
Rp3346
(dp3347
g21
g23
sg26
Vlib/python3.6/site-packages/wxtbx/command_line/show_file_info.py
p3348
sbsg0
(g17
g2
Ntp3349
Rp3350
(dp3351
g21
g23
sg26
Vbin/wxtbx.inspect_r_free_flags
p3352
sbg0
(g17
g2
Ntp3353
Rp3354
(dp3355
g21
g23
sg26
Vlib/python3.6/site-packages/wxtbx/command_line/inspect_r_free_flags.py
p3356
sbsg0
(g17
g2
Ntp3357
Rp3358
(dp3359
g21
g23
sg26
Vbin/wxtbx.xtriage
p3360
sbg0
(g17
g2
Ntp3361
Rp3362
(dp3363
g21
g23
sg26
Vlib/python3.6/site-packages/wxtbx/command_line/xtriage.py
p3364
sbsg0
(g17
g2
Ntp3365
Rp3366
(dp3367
g21
g23
sg26
Vbin/mmtbx.xtriage_gui
p3368
sbg3362
sg0
(g17
g2
Ntp3369
Rp3370
(dp3371
g21
g23
sg26
Vbin/cctbx.plot_anomalous_scattering
p3372
sbg0
(g17
g2
Ntp3373
Rp3374
(dp3375
g21
g23
sg26
Vlib/python3.6/site-packages/wxtbx/command_line/plot_anomalous_scattering.py
p3376
sbsg0
(g17
g2
Ntp3377
Rp3378
(dp3379
g21
g23
sg26
Vbin/mmtbx.pdb_statistics
p3380
sbg0
(g17
g2
Ntp3381
Rp3382
(dp3383
g21
g23
sg26
Vlib/python3.6/site-packages/wxtbx/command_line/pdb_statistics.py
p3384
sbsg0
(g17
g2
Ntp3385
Rp3386
(dp3387
g21
g23
sg26
Vbin/wxtbx.plan_sad_experiment
p3388
sbg0
(g17
g2
Ntp3389
Rp3390
(dp3391
g21
g23
sg26
Vlib/python3.6/site-packages/wxtbx/command_line/plan_sad_experiment.py
p3392
sbsg0
(g17
g2
Ntp3393
Rp3394
(dp3395
g21
g23
sg26
Vbin/cctbx.loggraph
p3396
sbg0
(g17
g2
Ntp3397
Rp3398
(dp3399
g21
g23
sg26
Vlib/python3.6/site-packages/wxtbx/command_line/loggraph.py
p3400
sbsg0
(g17
g2
Ntp3401
Rp3402
(dp3403
g21
g23
sg26
Vbin/mmtbx.bfactor_plot
p3404
sbg0
(g17
g2
Ntp3405
Rp3406
(dp3407
g21
g23
sg26
Vlib/python3.6/site-packages/wxtbx/command_line/b_plot.py
p3408
sbsg0
(g17
g2
Ntp3409
Rp3410
(dp3411
g21
g23
sg26
Vbin/cctbx.wxpython
p3412
sbg0
(g17
g2
Ntp3413
Rp3414
(dp3415
g21
g23
sg26
Vlib/python3.6/site-packages/wxtbx/command_line/wxpython.py
p3416
sbsg0
(g17
g2
Ntp3417
Rp3418
(dp3419
g21
g23
sg26
Vbin/wxtbx.anomalous_differences_histogram
p3420
sbg0
(g17
g2
Ntp3421
Rp3422
(dp3423
g21
g23
sg26
Vlib/python3.6/site-packages/wxtbx/command_line/anomalous_differences_histogram.py
p3424
sbssV_dispatcher_include_at_start
p3425
(lp3426
sV_dispatcher_include_before_command
p3427
(lp3428
sVboost_version
p3429
L107200L
sVdispatcher_name
p3430
NsVfull_testing
p3431
I00
sb.